(dp0
V Only in Saskatchewan.
p1
(dp2
S'sentiment'
p3
I0
sS'label'
p4
I-1
ssV "Remember back during the Teahadist days...? PUNCxQUESTION_MARK
p5
(dp6
g3
I0
sg4
I-1
ssV I knew suicide was wrong, but I was too young to be held accountable, so yah! PUNCxEXCLAMATION_POINT
p7
(dp8
g3
I-1
sg4
I-1
ssVThe Antichrist, by Nietzsche would be perfect.
p9
(dp10
g3
I-1
sg4
I-1
ssVand 2010.
p11
(dp12
g3
I0
sg4
I-1
ssVWhat they said last time.
p13
(dp14
g3
I0
sg4
I-1
ssVLibertarians are the mirror image of communists.
p15
(dp16
g3
I0
sg4
I-1
ssV\u000a\u000aI am a New Yorker, and in my life experience, among my many friends and family all I can say is .... PUNCxUPPERCASE
p17
(dp18
g3
I1
sg4
I-1
ssVI understand their strategy.
p19
(dp20
g3
I0
sg4
I-1
ssV My belief system doesn't support a creator as such, as we can call God, who created us in His/Her/Its image.
p21
(dp22
g3
I-1
sg4
I-1
ssVThat, of course, is the Debt Star.
p23
(dp24
g3
I0
sg4
I-1
ssVSounds like the Democrats too.
p25
(dp26
g3
I-1
sg4
I-1
ssVv=1thcO_olHas&amp;sns=fb
p27
(dp28
g3
I0
sg4
I-1
ssV562 at the start and $17.
p29
(dp30
g3
I0
sg4
I-1
ssV"  Let me ask you this Mr.
p31
(dp32
g3
I0
sg4
I-1
ssV\u000a\u000aHopefully this response is helpful to readers that actually want to understand what Blackstone and other institutional investors are doing, rather than just shake their fists and yell "Damn Wall Street, Republicans, and Obama! PUNCxEXCLAMATION_POINT
p33
(dp34
g3
I-1
sg4
I-1
ssVPre-Giuliani years here we come
p35
(dp36
g3
I0
sg4
I-1
ssV In college, you are not innocent until proven guilty; you are most likely guilty until proven innocent.
p37
(dp38
g3
I-1
sg4
I-1
ssVIs this censorship? PUNCxQUESTION_MARK
p39
(dp40
g3
I0
sg4
I-1
ssV  And it's far from over.
p41
(dp42
g3
I-1
sg4
I-1
ssV Hence Obamacare would provide insurance for 30 million uninsured, while giving everybody tons of free medical services \u2014 without adding \u201cone dime to our deficits,\u201d promised Obama.
p43
(dp44
g3
I-1
sg4
I-1
ssVWhat if you believe that the fundamentalists are doing damage the word of Christ by driving more and more people away from the message? PUNCxQUESTION_MARK
p45
(dp46
g3
I0
sg4
I-1
ssV *Shrugs*
p47
(dp48
g3
I0
sg4
I-1
ssVBut we know that we would.
p49
(dp50
g3
I0
sg4
I-1
ssVThe home team always hears cheers from the crowd, even in their worst seasons.
p51
(dp52
g3
I-1
sg4
I-1
ssV Sad, sad times we live in.
p53
(dp54
g3
I-1
sg4
I-1
ssV Obviously the set up is to have hannity, a good debater go against someone ill prepared for his fast talking gotcha attack journalism, well this guy was ready.
p55
(dp56
g3
I-1
sg4
I-1
ssV How anyone can ever defend religion blows my mind.
p57
(dp58
g3
I-1
sg4
I-1
ssV Comforting for individuals, yes, binding communities together, sure...
p59
(dp60
g3
I1
sg4
I-1
ssVI mean if Obama can win one...
p61
(dp62
g3
I0
sg4
I-1
ssV  Hmmm...
p63
(dp64
g3
I0
sg4
I-1
ssVit's really not about money.
p65
(dp66
g3
I-1
sg4
I-1
ssV But there is a theology of youth ministry, thanks to folks like Kenda Creasy Dean (www.
p67
(dp68
g3
I-1
sg4
I-1
ssV\u000a\u000a3.
p69
(dp70
g3
I0
sg4
I-1
ssVIs it just me, or is the idea of ANY judge, at any level, deciding any case before them based on there own personal viewpoints utterly ridiculous? PUNCxQUESTION_MARK PUNCxUPPERCASE
p71
(dp72
g3
I-1
sg4
I-1
ssVIf hating you is wrong, I don't want to be right.
p73
(dp74
g3
I-1
sg4
I-1
ssVpnas.
p75
(dp76
g3
I0
sg4
I-1
ssV When someone shouts "Ah, this is what religion does to people! PUNCxEXCLAMATION_POINT
p77
(dp78
g3
I1
sg4
I-1
ssVThe only people offended by the Redskins are white liberals and Obama.
p79
(dp80
g3
I-1
sg4
I-1
ssV People who complain about biased media are forgetting that this is one of its hallmarks, and allowing yourself to get caught up in this is what drives their ratings.
p81
(dp82
g3
I-1
sg4
I-1
ssV"Remember, these days, liberals can see racism in a peanut butter and jelly sandwich.
p83
(dp84
g3
I-1
sg4
I-1
ssVimgur.
p85
(dp86
g3
I0
sg4
I-1
ssV You worked with Republicans to keep the military funded, why can't you do the same for the NiH? PUNCxQUESTION_MARK
p87
(dp88
g3
I-1
sg4
I-1
ssV The more likely scenario, however, is that Obamacare does fail.
p89
(dp90
g3
I-1
sg4
I-1
ssV  If state lawmakers want the power to provide residents with a state based healthcare solution, lawmakers must ask us Vermonters for this power by referendum and amend the state constitution upon our consent.
p91
(dp92
g3
I-1
sg4
I-1
ssV He single-handedly allowed Obama and the socialist party to move the Overton window so far left that real conservatism isn't even recognizable in the public discourse.
p93
(dp94
g3
I-1
sg4
I-1
ssVTheir business depends partly on their likability.
p95
(dp96
g3
I-1
sg4
I-1
ssV I hope we see a progressive party begin to challenge the Dems from the side of reason.
p97
(dp98
g3
I0
sg4
I-1
ssVConsidering it's a net loss for humans, yes.
p99
(dp100
g3
I-1
sg4
I-1
ssV\u000a\u000aGet off the cross.
p101
(dp102
g3
I-1
sg4
I-1
ssV It criticizes atheism for not being about more than atheism.
p103
(dp104
g3
I0
sg4
I-1
ssVTurn that shit into a drinking game.
p105
(dp106
g3
I-1
sg4
I-1
ssVm=1) \u000a\u000aThe author also uses the standard "The Bible says hold to the traditions! PUNCxEXCLAMATION_POINT
p107
(dp108
g3
I-1
sg4
I-1
ssV\u000a\u000aEdit for grammar.
p109
(dp110
g3
I0
sg4
I-1
ssV There are exceptions, of course, but more people are starting to believe in just a creator.
p111
(dp112
g3
I1
sg4
I-1
ssV**Supremacy clause** And also the 10^th amendment issue was settled in the landmark case Grant v.
p113
(dp114
g3
I-1
sg4
I-1
ssVThe NSA can spy on the *future*!? PUNCxEXCLAMATION_POINT PUNCxQUESTION_MARK PUNCxINTERROBANG PUNCxUPPERCASE
p115
(dp116
g3
I0
sg4
I1
ssVI like his boldness, but he still comes across a little...
p117
(dp118
g3
I0
sg4
I-1
ssVcom/article/2013/07/11/us-science-fracking-earthquakes-idUSBRE96A0TZ20130711), Reuters (July 11, 2013).
p119
(dp120
g3
I-1
sg4
I-1
ssV Whoa.
p121
(dp122
g3
I0
sg4
I1
ssVI like how the second poll doesn't give an option to blame congressional Democrats.
p123
(dp124
g3
I-1
sg4
I1
ssV\u000aGood article.
p125
(dp126
g3
I1
sg4
I-1
ssVI didn't start out that way and I don't really have to stay that way, but distributors are going to have a murderous time competing with the convenience and ease of use offered by most pirating methods.
p127
(dp128
g3
I-1
sg4
I-1
ssV\u000a\u000aBut it's not over yet.
p129
(dp130
g3
I-1
sg4
I-1
ssVThis is why I love Adam4d's stuff.
p131
(dp132
g3
I1
sg4
I-1
ssV And they are living into that.
p133
(dp134
g3
I0
sg4
I-1
ssV The awards, which will be paid beginning Feb.
p135
(dp136
g3
I-1
sg4
I-1
ssV "But but but you said I could keep eating dirt and paying for the privilege if I wanted! PUNCxEXCLAMATION_POINT
p137
(dp138
g3
I-1
sg4
I-1
ssVcom/public_content/politics/general_politics/october_2013/52_worry_government_won_t_do_enough_for_economy_62_want_cuts)
p139
(dp140
g3
I-1
sg4
I-1
ssV" (http://www.
p141
(dp142
g3
I1
sg4
I-1
ssV\u000a\u000aAs much as I think my country NEEDS single payer, realistically I have to admit that the majority of us apparently don't WANT it, so I'll take whatever petty improvements we can get. PUNCxUPPERCASE
p143
(dp144
g3
I-1
sg4
I-1
ssV \u000a\u000aSo, they are not saying, "give me everything in your house or Im going to burn it down," they are instead saying, "give me everything in your house or I won't douse it with my water.
p145
(dp146
g3
I-2
sg4
I-1
ssV  My understanding was that because of the law, George Zimmerman's decision to pursue and confront Martin did not disqualify him from claiming self-defense.
p147
(dp148
g3
I-1
sg4
I-1
ssVFor conservatives, Mike Malloy is the Michael Savage of the left.
p149
(dp150
g3
I-1
sg4
I-1
ssVIt's 2013 still.
p151
(dp152
g3
I0
sg4
I-1
ssV  If anything, the argument could be made that legalizing marijuana and regulating it would make it harder for kids to obtain.
p153
(dp154
g3
I-1
sg4
I-1
ssV"atheist winter holiday gift exchange" - this cracks me up.
p155
(dp156
g3
I1
sg4
I-1
ssVyoutube.
p157
(dp158
g3
I0
sg4
I-1
ssV  Good luck to us in maintaining the necessary levels of tax revenue to effectively fund a model single payer system when we have the oldest population in the U.
p159
(dp160
g3
I1
sg4
I-1
ssVcom/ThisWeek/t/video/week-exclusive-interview-john-boehner-20486985
p161
(dp162
g3
I0
sg4
I-1
ssV:P (sarcasm) PUNCxEMOTICON
p163
(dp164
g3
I0
sg4
I-1
ssV Clinton's 61 percent.
p165
(dp166
g3
I0
sg4
I-1
ssVA CEO? PUNCxQUESTION_MARK PUNCxUPPERCASE
p167
(dp168
g3
I0
sg4
I-1
ssV\u000a\u000aI do think that the Tea Party could die as a result of this though, or at least be cut off from the mainstream Republican party that they have latched onto. PUNCxUPPERCASE
p169
(dp170
g3
I-1
sg4
I-1
ssVPeople with negative personal history will take advantage of the easy fix of saying they found religion.
p171
(dp172
g3
I1
sg4
I-1
ssVNo he just has a brain.
p173
(dp174
g3
I-1
sg4
I-1
ssVMatthews must mistakenly think that if O'Reilly died he would get a share of the viewership.
p175
(dp176
g3
I-1
sg4
I-1
ssV But those predictions weren't all that remarkable.
p177
(dp178
g3
I-1
sg4
I-1
ssV  I think most would agree this is a good thing.
p179
(dp180
g3
I1
sg4
I-1
ssV\u000aThats not Christmas shopping...
p181
(dp182
g3
I0
sg4
I-1
ssVYou got what you wanted then.
p183
(dp184
g3
I0
sg4
I1
ssV Atheists love their spouses and children.
p185
(dp186
g3
I1
sg4
I-1
ssVthe villagers hid the best they could and hoped that the terror would pass them by.
p187
(dp188
g3
I1
sg4
I-1
ssV*\u000a\u000a
p189
(dp190
g3
I0
sg4
I-1
ssV Rather, their support base in the states comes from the born again Christians and Evangelicals.
p191
(dp192
g3
I-1
sg4
I-1
ssVfaithformationlearningexchange.
p193
(dp194
g3
I0
sg4
I-1
ssV I shared to the co-leaders about my own experience and looking forward to come to church as an unbeliever because God's Word drew my natural curiosities.
p195
(dp196
g3
I-1
sg4
I-1
ssV\u000a\u000aI found the article to be a bit of a strawman. PUNCxUPPERCASE
p197
(dp198
g3
I1
sg4
I-1
ssVI don't think you guys are on-board with how important it is to get every bit of carbon out of the ground and into the atmosphere.
p199
(dp200
g3
I-1
sg4
I1
ssV In every sense of the word.
p201
(dp202
g3
I0
sg4
I-1
ssVEvery time a liberal whines about their precious Obamacare, and angel gets its wings.
p203
(dp204
g3
I-1
sg4
I-1
ssV You take down the major banks and force a massive market correction, and you essentially wipe out the life savings of millions of people.
p205
(dp206
g3
I-1
sg4
I-1
ssV I get it, we should be working harder to get political control over the money machine.
p207
(dp208
g3
I-1
sg4
I-1
ssV Yes, you heard it here first.
p209
(dp210
g3
I1
sg4
I-1
ssV I guess I chickened out.
p211
(dp212
g3
I-1
sg4
I-1
ssV you know, just completely disable them to match their own unconstitutional behavior and stop them.
p213
(dp214
g3
I-1
sg4
I-1
ssV You decry conservatives being painted with a broad brush, then you paint "all Democrats" with an even broader brush.
p215
(dp216
g3
I-1
sg4
I-1
ssVLiberals: "We ran a black guy so we can't be racist! PUNCxEXCLAMATION_POINT
p217
(dp218
g3
I-1
sg4
I-1
ssVSorry but this article is....
p219
(dp220
g3
I0
sg4
I-1
ssVcom/703/) Huh? PUNCxQUESTION_MARK
p221
(dp222
g3
I-1
sg4
I-1
ssV I read stuff like this and it makes me cringe.
p223
(dp224
g3
I-1
sg4
I-1
ssV While in some places he assumes an audience familiar with certain aspects of Judaism, we know that his churches were significantly Gentilic.
p225
(dp226
g3
I-1
sg4
I-1
ssV I wouldn't be who I am today without this program.
p227
(dp228
g3
I-1
sg4
I-1
ssV  Regardless of whether or not they have altruistic intentions, guys like him still employ more people than if they hadn't started their companies to begin with.
p229
(dp230
g3
I-1
sg4
I-1
ssV  Your writing style is annoying.
p231
(dp232
g3
I-1
sg4
I-1
ssV They will get 2 weeks paid vacation.
p233
(dp234
g3
I0
sg4
I-1
ssVS.
p235
(dp236
g3
I0
sg4
I-1
ssVcom/article/obama-and-wright-throw-each-other-under-the-bus\u000a\u000aI can understand a career politician in the USA needing to feign belief to get elected, but for that purpose I'd imagine a more vanilla choice of church. PUNCxUPPERCASE
p237
(dp238
g3
I-1
sg4
I-1
ssV Then those children sort of forgot about it, feeling that progress was made and now those things needn't be worried about.
p239
(dp240
g3
I0
sg4
I-1
ssVi wish there was someone/a group of people out there who were good enough to do this kind of shit right back to them.
p241
(dp242
g3
I-1
sg4
I-1
ssV 1 and we're just hearing about it now.
p243
(dp244
g3
I0
sg4
I-1
ssV\u000a\u000aAt the same time, Christianity gives you what is oft interpreted as a "get out of jail free" card.
p245
(dp246
g3
I-1
sg4
I-1
ssV  Obama might want to try that some time.
p247
(dp248
g3
I-1
sg4
I-1
ssVTypical liberal race baiting.
p249
(dp250
g3
I0
sg4
I-1
ssVI agree with you - the stronger the middle class, the better for our economy.
p251
(dp252
g3
I1
sg4
I-1
ssVConsidering President Obama's first term began in the throes of the Great Recession and recovery stimulus was compromised down to be less effective, it should have been clear to all from this beginning what the conservative goals were, and what they were willing to do to achieve them.
p253
(dp254
g3
I-1
sg4
I-1
ssV\u000a\u000aUnless you would like to cite directly what part of the constitution (which doesn't mention education at all) relates to what he was trying to do there.
p255
(dp256
g3
I-1
sg4
I-1
ssVI wouldn't be surprised if the Park service tried to claim 'eminent domain' next.
p257
(dp258
g3
I-1
sg4
I-1
ssV He wasn't even made speechless.
p259
(dp260
g3
I-1
sg4
I-1
ssV work that way.
p261
(dp262
g3
I0
sg4
I-1
ssVWhat the hell happened here? PUNCxQUESTION_MARK
p263
(dp264
g3
I-1
sg4
I-1
ssV That, and if you actually read the very short article, it's clear the whole Biblical method of rearing the child was the focus.
p265
(dp266
g3
I-1
sg4
I-1
ssV In His interactions with man God gave a multitude of examples for ways to live, a hundred different and seemingly contrary ways to be a believer.
p267
(dp268
g3
I-1
sg4
I-1
ssV  I followed the story as Obama brought it to Congress, the pros/cons, the opinion polls, arguments for and against a strike, the videos of children dying from the Sarin.
p269
(dp270
g3
I-1
sg4
I-1
ssVSerious question here: \u000aWhy is gold considered more "reliable"? PUNCxQUESTION_MARK
p271
(dp272
g3
I0
sg4
I-1
ssV The other judge who considers patent cases filed there is US District Judge Leonard Davis; but since Judge Davis' son William "Bo" Davis is Lodsys' lawyer, the company's cases will all be redirected to Gilstrap.
p273
(dp274
g3
I-1
sg4
I-1
ssVcpsc.
p275
(dp276
g3
I0
sg4
I-1
ssVNobody is *giving* rights to anyone.
p277
(dp278
g3
I-1
sg4
I-1
ssVThere are plenty of them, don't worry.
p279
(dp280
g3
I-1
sg4
I-1
ssV\u000a\u000aIncorrect attribution isn't what happened here.
p281
(dp282
g3
I-1
sg4
I-1
ssV\u000a\u000a&gt;This is the signature legislative achievement of the Obama presidency, the embodiment of his new entitlement-state liberalism.
p283
(dp284
g3
I1
sg4
I-1
ssV See graphs below:\u000a\u000a[Spending to GDP percentage](http://www. PUNCxUPPERCASE
p285
(dp286
g3
I-1
sg4
I-1
ssVThe tides of change are on the move.
p287
(dp288
g3
I0
sg4
I-1
ssV To say that the Bible "starts with a poem," is (and I don't know how else to say this) ignorant.
p289
(dp290
g3
I-1
sg4
I-1
ssV  Its the law, of course is going to tell people to sign up for it...
p291
(dp292
g3
I0
sg4
I-1
ssV But it was the court that blocked it, not the constitution.
p293
(dp294
g3
I-1
sg4
I-1
ssVNo religious orginization is exactly squeaky clean...
p295
(dp296
g3
I-1
sg4
I-1
ssV  Just because they have deep pockets, doesn't mean they know what they are doing.
p297
(dp298
g3
I-1
sg4
I-1
ssV (Florida '00 - Ohio '04)\u000a\u000aWhy is why they started a 3 prong attack on the elections:\u000a\u000a* Suppress the vote - Voter ID laws, inaccurate voter rolls falsely disqualifying legitimate voters\u000a\u000a* Gerrymandering districts\u000a\u000a* Push to divide electoral college votes by winner in each congressional district in Blue and Purple states, but keeping it winner takes all in Red states.
p299
(dp300
g3
I-1
sg4
I-1
ssV If you aren't willing to go through this process then you are making bullshit claims and you need to hire a marketing team that doesn't have it's head up its own rear.
p301
(dp302
g3
I-1
sg4
I-1
ssV \u000a\u000aThe real issue seems to be the systematic underfunding and raiding of pension money by the Government to fund various projects/tax cuts etc.
p303
(dp304
g3
I-1
sg4
I-1
ssVcom/joan-fitzgerald/electoral-college-gerrymandering_b_2552584.
p305
(dp306
g3
I0
sg4
I-1
ssVnobody actually pays it, everyone gets a special "sale" price.
p307
(dp308
g3
I1
sg4
I-1
ssVOutstanding article.
p309
(dp310
g3
I0
sg4
I-1
ssVWhat is there to manipulate, the two part system has both parties controlled by the same people.
p311
(dp312
g3
I-1
sg4
I-1
ssV\u000a\u000aAnd, I have already talked to a friend about the whole "Hey, If I die, you need to go on these websites and contact these people.
p313
(dp314
g3
I-1
sg4
I-1
ssV An idiot with barely passable video production skills.
p315
(dp316
g3
I-1
sg4
I-1
ssV Fire damaged goods with a personal story that is irrelevant.
p317
(dp318
g3
I0
sg4
I-1
ssV What a disgrace in a wealthy country that the 'fat' that gets cut takes the food out of the mouths of children...
p319
(dp320
g3
I-1
sg4
I-1
ssV\u000a\u000aThese police, to many police, are out of control.
p321
(dp322
g3
I-1
sg4
I-1
ssV50 a meal, so per year that's $1.
p323
(dp324
g3
I1
sg4
I-1
ssVHe's nice because he's canadian.
p325
(dp326
g3
I1
sg4
I-1
ssVIf you remove the "christian" qualifier, you can see what a self-evident statement that is.
p327
(dp328
g3
I1
sg4
I-1
ssVorg/donate/) to help them out.
p329
(dp330
g3
I0
sg4
I-1
ssV Rand is the darling of the Libertarians, they will defend him and his father till their last breaths.
p331
(dp332
g3
I1
sg4
I-1
ssV Possibly allow many people, who never see pro-conservative ads due to mainstream media, see things in a new light.
p333
(dp334
g3
I0
sg4
I-1
ssV&gt; Betteridge's law of headlines is an adage that states, "Any headline which ends in a question mark can be answered by the word no.
p335
(dp336
g3
I-1
sg4
I-1
ssVMust not be much going on for Congress this week.
p337
(dp338
g3
I-1
sg4
I-1
ssVI wonder if Obamacare covers whatever it is that Carney's smoking? PUNCxQUESTION_MARK
p339
(dp340
g3
I0
sg4
I1
ssVNever ever thought I would see a bunnyhug mentioned on reddit.
p341
(dp342
g3
I-1
sg4
I-1
ssV  This is the dumbest thing I have seen from any side.
p343
(dp344
g3
I1
sg4
I-1
ssV Feel weird about buying produce picked by teenage migrant workers for below minimum wage? PUNCxQUESTION_MARK
p345
(dp346
g3
I-1
sg4
I-1
ssV Progressives, from the president on down, say that inequality in America today is a failure of the free market, resulting from insufficient government intervention.
p347
(dp348
g3
I-1
sg4
I-1
ssVMy family would shut this crap *down* immediately.
p349
(dp350
g3
I-1
sg4
I-1
ssV \u000a\u000aI have an idea: Let's go to single payer *before* it fails. PUNCxUPPERCASE
p351
(dp352
g3
I-1
sg4
I-1
ssV&gt; If there are other laws that do, that has nothing to do with Obamacare.
p353
(dp354
g3
I-1
sg4
I-1
ssV Someone who thinks The Administration is actually in charge.
p355
(dp356
g3
I1
sg4
I1
ssV1002/jgrb.
p357
(dp358
g3
I0
sg4
I-1
ssVIt ruined Paul Ryan's childhood because he's still a very confused little Eddie Munster.
p359
(dp360
g3
I-2
sg4
I-1
ssV They're barely willing to tolerate the incredibly mild reforms in the ACA. PUNCxUPPERCASE
p361
(dp362
g3
I-1
sg4
I-1
ssV\u000a\u000aIf we're to make inroads for the Progressive movement we're going to need to address and assuage these fears.
p363
(dp364
g3
I-1
sg4
I-1
ssVYou can call me Diamond.
p365
(dp366
g3
I0
sg4
I-1
ssVAwesome letter.
p367
(dp368
g3
I1
sg4
I-1
ssV\u000a\u000a---\u000a\u000a&gt; On almost any criterion you can come up with, the government-controlled systems work better.
p369
(dp370
g3
I-1
sg4
I-1
ssV  Not that most white voters were necessarily racist, they were just more predisposed to identifying with the white candidate.
p371
(dp372
g3
I-1
sg4
I-1
ssV Confirmation bias is action.
p373
(dp374
g3
I0
sg4
I-1
ssV  He's probably the biggest pariah on my f'list, though, and for a number of reasons that range from petty to "oh hey, that's one hell of a criminal record you racked up between 18 and 22.
p375
(dp376
g3
I-2
sg4
I-1
ssV  It's a slow day at work today, so I thought I'd write a few bullet points as I was reading through it:\u000a\u000a1.
p377
(dp378
g3
I-1
sg4
I-1
ssV That being said, I know I don't like pollution.
p379
(dp380
g3
I-1
sg4
I-1
ssV\u000a\u000aTo begin with, the word *protest* [derives](http://www.
p381
(dp382
g3
I-1
sg4
I-1
ssVAlas, I know not enough geology to properly refute this.
p383
(dp384
g3
I-1
sg4
I-1
ssV Of course they've all done and said things that make me shake my head, but I do have respect.
p385
(dp386
g3
I1
sg4
I-1
ssV\u000a\u000aThe Republican ideology, its religion, its policies are altogether suicide for us as a nation.
p387
(dp388
g3
I1
sg4
I-1
ssV\u000a\u000aDid Bill even think about who would then pay for this new healthcare system before he opened his mouth? PUNCxQUESTION_MARK
p389
(dp390
g3
I0
sg4
I-1
ssV I keep seeing brand new posts downvoted long before someone could have read the article.
p391
(dp392
g3
I-1
sg4
I-1
ssVI have Comcast, and it states in the agreement that you can't host servers, unless you upgrade to business class.
p393
(dp394
g3
I-1
sg4
I-1
ssV  Here is a blog that I thought was informative on this:\u000a\u000ahttp://dalrock.
p395
(dp396
g3
I1
sg4
I-1
ssV I've read a lot of assessments suggesting that kids today are less literate than kids who were born in the 80's.
p397
(dp398
g3
I0
sg4
I-1
ssVOne thing that's just kind of flying under the radar is that the GOP's vision for reduced spending is *already* enshrined in the Democrats (Senate) funding proposals-- the sequester is the new established baseline.
p399
(dp400
g3
I-1
sg4
I-1
ssVWhy did they stay here until the 1980s when the rates started dropping? PUNCxQUESTION_MARK
p401
(dp402
g3
I-1
sg4
I-1
ssV Intellectual dishonestly like this just screams that he (or whoever does his writing) is just being lazy.
p403
(dp404
g3
I-1
sg4
I-1
ssVSources say no.
p405
(dp406
g3
I0
sg4
I-1
ssV They are preserving history in so many ways; without their efforts, much of our curiosity would go unsatisfied.
p407
(dp408
g3
I-1
sg4
I-1
ssV*"You know we can hear you, right? PUNCxQUESTION_MARK
p409
(dp410
g3
I1
sg4
I-1
ssVReally? PUNCxQUESTION_MARK
p411
(dp412
g3
I0
sg4
I-1
ssVIt would be nice to be able to explain more about some of the answers.
p413
(dp414
g3
I1
sg4
I-1
ssVIt fucking baffles me that this many people still voted for this guy.
p415
(dp416
g3
I-1
sg4
I-1
ssV\u000a\u000aFuck that.
p417
(dp418
g3
I0
sg4
I-1
ssV\u000a\u000aI just wish Republicans would pick one or the other and run with it. PUNCxUPPERCASE
p419
(dp420
g3
I-1
sg4
I-1
ssVMust be a "racist" too.
p421
(dp422
g3
I0
sg4
I1
ssVSourceforge has been going downhill for a good while now - it's time that everybody still on there migrated to GitHub or similar.
p423
(dp424
g3
I-1
sg4
I-1
ssV   Without a younger workforce attracted by a diverse and strong in-state business climate to warrant their residence, who will to shoulder the tax burden for those who use healthcare the most? PUNCxQUESTION_MARK
p425
(dp426
g3
I-1
sg4
I-1
ssV The pope interacting in that way with a kid is great PR. PUNCxUPPERCASE
p427
(dp428
g3
I1
sg4
I-1
ssV  The bill is public you can read it, it is long though, and find where it is in the bill.
p429
(dp430
g3
I-1
sg4
I-1
ssV \u000a\u000aAs they see it, they are in the cat bird seat.
p431
(dp432
g3
I1
sg4
I-1
ssVv=lNe9X1CLV_U\u000a\u000ahttp://en.
p433
(dp434
g3
I0
sg4
I-1
ssV I will pay $72 per check (bi-weekly) for full coverage and NO deductible.
p435
(dp436
g3
I-1
sg4
I-1
ssV And I'm afraid that that conversion is permanent for a lot of them.
p437
(dp438
g3
I-1
sg4
I-1
ssV  The exact same thing has happened for years and years in commercial real estate and multi-family apartment real estate investing.
p439
(dp440
g3
I-1
sg4
I-1
ssV Stossel, I hope you get run over by a bus, you dickholster.
p441
(dp442
g3
I0
sg4
I-1
ssV Short memories.
p443
(dp444
g3
I0
sg4
I-1
ssV'  I fucking hate "christian" legislators.
p445
(dp446
g3
I-1
sg4
I-1
ssVI like this video but not as much as the one where he promises to end wire tapping.
p447
(dp448
g3
I-1
sg4
I-1
ssV If this bill does pass, litigation is almost certain to follow and recent decisions make me think that it will be determined to be unconstitutional.
p449
(dp450
g3
I-1
sg4
I-1
ssV  Even the Republican base doesn't want the current Republicans in control of Congress! PUNCxEXCLAMATION_POINT
p451
(dp452
g3
I-1
sg4
I-1
ssV The fact of life is that kids do things their parents don't like, and no matter how those things are recorded kids would always prefer some privacy.
p453
(dp454
g3
I1
sg4
I-1
ssV  \u000a\u000aPlease don't think that because I'm sceptical of this author, that I some how support violence against woman or something like that.
p455
(dp456
g3
I-1
sg4
I-1
ssV \u000a\u000a* I have thought the same thing.
p457
(dp458
g3
I1
sg4
I-1
ssV Though I don't see any lower price coming in 6 months except for the xbone.
p459
(dp460
g3
I-1
sg4
I-1
ssV How did this worship change before the Torah authors put oral tales to script? PUNCxQUESTION_MARK
p461
(dp462
g3
I0
sg4
I-1
ssV\u000a\u000asame with boehner, hatch, cornyn, mccain, graham ...
p463
(dp464
g3
I-1
sg4
I-1
ssV  They really don't think about the long term do they? PUNCxQUESTION_MARK
p465
(dp466
g3
I-1
sg4
I-1
ssV\u000a\u000aThe main problem is that the duration of the trip is over 3 hours.
p467
(dp468
g3
I-1
sg4
I-1
ssV](http://www.
p469
(dp470
g3
I0
sg4
I-1
ssV\u000a\u000aEdit:\u000a\u000aQuantum computers might be better at mining (through Grover's algorithm) than classical computers, just like ASICs are now better at it than graphics cards.
p471
(dp472
g3
I-1
sg4
I-1
ssVFuck the Bronze Age.
p473
(dp474
g3
I0
sg4
I-1
ssV  \u000a\u000aAnother recent article about wikipedia:\u000a\u000ahttp://www.
p475
(dp476
g3
I0
sg4
I-1
ssV But you cant forget about his bailouts those videos are always worth a watch after all he kept Detroit running.
p477
(dp478
g3
I-1
sg4
I-1
ssVDid you sign up for Obamacare \u000a\u000aA. PUNCxUPPERCASE
p479
(dp480
g3
I0
sg4
I1
ssV If you trust your body and your medical records to a facility, it helps if you are aware of their activities.
p481
(dp482
g3
I1
sg4
I-1
ssV the only way we lose is to agree to let democrats / fiscal authoritarians to keep spending.
p483
(dp484
g3
I-1
sg4
I-1
ssV  His name is even copied from Ayn Rand! PUNCxEXCLAMATION_POINT
p485
(dp486
g3
I0
sg4
I-1
ssV \u000a\u000aI'm guessing one of the aides had to pull him aside after this.
p487
(dp488
g3
I1
sg4
I-1
ssVBut GOP members of Congress with their gun to the head of the American people making hostage demands **will** be paid during the shutdown. PUNCxUPPERCASE
p489
(dp490
g3
I-1
sg4
I-1
ssVI.
p491
(dp492
g3
I0
sg4
I-1
ssV They create bubbles.
p493
(dp494
g3
I1
sg4
I-1
ssV\u000a\u000aIf you want to know a little more about the Internet Archive, there's a great [behind-the-scenes documentary](http://vimeo.
p495
(dp496
g3
I-1
sg4
I-1
ssV While I disagree with the spirit of these events, if he knowingly did it against the rules, there are going to be consequences, just like a bishop being ex-communicated for ordaining a woman priest.
p497
(dp498
g3
I-1
sg4
I-1
ssVRegina, Saskatchewan.
p499
(dp500
g3
I1
sg4
I-1
ssVwhitehouse.
p501
(dp502
g3
I0
sg4
I-1
ssV  Sadly, I too believed homosexuality was a sin.
p503
(dp504
g3
I-1
sg4
I-1
ssVPerhaps because the whole thing was Koch Brothers Astroturf? PUNCxQUESTION_MARK
p505
(dp506
g3
I0
sg4
I-1
ssV I think the entire tech world can agree to that.
p507
(dp508
g3
I0
sg4
I-1
ssVgov application has been stuck for a month now at the \u201cView Eligibility Results\u201d stage"\u000a\u000aIn other words, he has no insurance.
p509
(dp510
g3
I-1
sg4
I-1
ssVYes, "stolen".
p511
(dp512
g3
I1
sg4
I-1
ssV By that time she'll have the experience and political wherewithal to actually be effective and win.
p513
(dp514
g3
I1
sg4
I-1
ssV\u000a\u000aAlso, everyone reinterprets the bible in a way that suits their culture, whether they're aware of it or not.
p515
(dp516
g3
I-1
sg4
I-1
ssVIt's amazing how Democrats view money.
p517
(dp518
g3
I1
sg4
I-1
ssV Source on batshit crazy is widely held opinion in NC. PUNCxUPPERCASE
p519
(dp520
g3
I-1
sg4
I-1
ssV Congratulations.
p521
(dp522
g3
I0
sg4
I1
ssV"\u000a"That's not a gun, it's a book! PUNCxEXCLAMATION_POINT
p523
(dp524
g3
I-1
sg4
I-1
ssVWhen was it ever a haven for free speech? PUNCxQUESTION_MARK
p525
(dp526
g3
I0
sg4
I-1
ssVBad subject line, incorrect info.
p527
(dp528
g3
I-1
sg4
I-1
ssVhtm).
p529
(dp530
g3
I0
sg4
I-1
ssV I claim to not believe in Unicorns because I'm ANGRY at Unicorns. PUNCxUPPERCASE
p531
(dp532
g3
I-1
sg4
I-1
ssVThis is what happens when you have superrich with too much capital and not enough investment opportunities.
p533
(dp534
g3
I0
sg4
I-1
ssVI'm slowly-but-surely learning to hate my generation.
p535
(dp536
g3
I-1
sg4
I-1
ssV This happens to be a game changer.
p537
(dp538
g3
I0
sg4
I-1
ssVI believe it would be right cool if the Democrats just took over the position of 'conservative' party.
p539
(dp540
g3
I1
sg4
I-1
ssV'Reid' and 'reasons' share part of a syllable; can't be coincidence.
p541
(dp542
g3
I1
sg4
I1
ssV  The guys who lost their radioactive fracking waste along a texas highway? PUNCxQUESTION_MARK
p543
(dp544
g3
I-1
sg4
I-1
ssV This year we will not see blinking lights on houses, decorated trees in homes, christmas services at church, christmas products for sale in every store nor even a single christmas-related advertisement.
p545
(dp546
g3
I-1
sg4
I1
ssVThis really is pathetic.
p547
(dp548
g3
I-2
sg4
I-1
ssV\u000a\u000aIt could happen, but there would need to be a very good reason.
p549
(dp550
g3
I-1
sg4
I-1
ssVSome men have a midlife crisis when their daughters go through puberty.
p551
(dp552
g3
I0
sg4
I-1
ssV&gt; Have the GOP talking heads trashing the site taken the time to do that exercise themselves? PUNCxQUESTION_MARK PUNCxUPPERCASE
p553
(dp554
g3
I0
sg4
I-1
ssVBut what *can* be done? PUNCxQUESTION_MARK
p555
(dp556
g3
I-1
sg4
I-1
ssVBecause MSNBC... PUNCxUPPERCASE
p557
(dp558
g3
I0
sg4
I-1
ssVCrap.
p559
(dp560
g3
I0
sg4
I-1
ssV In Acts, the author has Paul challenging Epicurean and Stoic philosophers, and trying to *convince* Athenians to embrace the gospel.
p561
(dp562
g3
I-1
sg4
I-1
ssV  On Syria for example, I read the Washington Post, Guardian, Reuters, AP, al Jazeera, CNN. PUNCxUPPERCASE
p563
(dp564
g3
I-1
sg4
I-1
ssV\u000a\u000aAaannnndddd downvotes....
p565
(dp566
g3
I0
sg4
I-1
ssVSurely they'll offer an "In TFSM We Trust" version, right? PUNCxQUESTION_MARK PUNCxUPPERCASE
p567
(dp568
g3
I0
sg4
I1
ssV" is valid for personal reflection though.
p569
(dp570
g3
I1
sg4
I-1
ssV \u000a\u000aThe 19.
p571
(dp572
g3
I0
sg4
I-1
ssV They have no exclusive right to the life, health and wealth of this planet that supersedes yours.
p573
(dp574
g3
I-1
sg4
I-1
ssV  That's why their porn habits would matter.
p575
(dp576
g3
I0
sg4
I-1
ssV  If you love your rules first, your doing it wrong.
p577
(dp578
g3
I-1
sg4
I-1
ssV1% and they benefited greatly from it.
p579
(dp580
g3
I1
sg4
I-1
ssV I think not, they have allowed all the bullshit to continue this long and they will allow it to continue on.
p581
(dp582
g3
I-1
sg4
I-1
ssVI am always amazed at how biblically illiterate people must be to find stuff like this surprising.
p583
(dp584
g3
I-1
sg4
I-1
ssV\u000a\u000aSummary: Sharon Begley, [Study Raises New Concern About Earthquakes and Fracking Fluids](http://www.
p585
(dp586
g3
I-1
sg4
I-1
ssVYes but this tactic isn't protecting the rights of their minority.
p587
(dp588
g3
I-1
sg4
I-1
ssVno one is that stupid...
p589
(dp590
g3
I-1
sg4
I-1
ssV Arrogance.
p591
(dp592
g3
I0
sg4
I-1
ssV Are their executives at risk of being unable to feed a hungry child? PUNCxQUESTION_MARK
p593
(dp594
g3
I-1
sg4
I-1
ssVI agree, hes definitely doing what his constituents elected him for.
p595
(dp596
g3
I-1
sg4
I-1
ssV\u000a\u000aWhat bothers me is when the tax money we already collect is spent on billionaires, military equipment the military begs us to stop buying, and myriad other bullshit that *does not serve the taxpayers* and THEN they ask for MORE! PUNCxEXCLAMATION_POINT PUNCxUPPERCASE
p597
(dp598
g3
I-1
sg4
I-1
ssV  Today? PUNCxQUESTION_MARK
p599
(dp600
g3
I0
sg4
I1
ssV$69.
p601
(dp602
g3
I0
sg4
I-1
ssV They want women to stay home, to not use bc, to not vote, to stfu.
p603
(dp604
g3
I-1
sg4
I-1
ssV\u000a\u000a****\u000a\u000aWon-Young Kim, [Induced Seismicity Associated with Fluid Injection into a Deep Well in Youngstown, Ohio](http://onlinelibrary.
p605
(dp606
g3
I-1
sg4
I-1
ssV\u000a\u000aAlso, does an intellectual worships science? PUNCxQUESTION_MARK
p607
(dp608
g3
I-1
sg4
I-1
ssVARE THEY FUCKING SERIOUS?!?!? PUNCxEXCLAMATION_POINT PUNCxQUESTION_MARK PUNCxINTERROBANG PUNCxUPPERCASE
p609
(dp610
g3
I0
sg4
I-1
ssVCheney will live forever, because only the good die young.
p611
(dp612
g3
I-1
sg4
I-1
ssV But there is a difference between being angry and being effective.
p613
(dp614
g3
I-1
sg4
I-1
ssV\u000a\u000aIf you really want to make a difference in the developing world, I recommend following the advice of givewell.
p615
(dp616
g3
I1
sg4
I-1
ssV\u000a\u000a5.
p617
(dp618
g3
I0
sg4
I-1
ssV (As far as pot is concerned) Do they drug test because marijuana is against the law, or just because the business owners don't want an employee that gets high? PUNCxQUESTION_MARK
p619
(dp620
g3
I-1
sg4
I-1
ssVI don't think so.
p621
(dp622
g3
I0
sg4
I-1
ssV\u000a\u000a&gt;Again, police found nothing, and again the procedures were done without consent, and in a county not covered by the search warrant.
p623
(dp624
g3
I-1
sg4
I-1
ssV but *I* feel patronized. PUNCxUPPERCASE
p625
(dp626
g3
I-1
sg4
I-1
ssVThank you for contributing - I agree! PUNCxEXCLAMATION_POINT
p627
(dp628
g3
I1
sg4
I-1
ssV Good luck taking that down....
p629
(dp630
g3
I1
sg4
I-1
ssV I visited a doctor twice for a sleeping problem.
p631
(dp632
g3
I-1
sg4
I-1
ssV\u000a\u000aNobody's perfect in every regard.
p633
(dp634
g3
I1
sg4
I-1
ssVYeah I'am voting chris christie over clinton.
p635
(dp636
g3
I-1
sg4
I-1
ssV If more people could support a life like that on a low wage position I'm sure many would cease to "mooch" off welfare.
p637
(dp638
g3
I-1
sg4
I-1
ssV*
p639
(dp640
g3
I0
sg4
I-1
ssVorg) that teaches us how to minister rightly to those adolescents in our congregations.
p641
(dp642
g3
I-1
sg4
I-1
ssVThis is not exactly a legal grey area...
p643
(dp644
g3
I0
sg4
I-1
ssV Understanding how they work has obvious benefits.
p645
(dp646
g3
I1
sg4
I-1
ssV Right there.
p647
(dp648
g3
I0
sg4
I1
ssV\u000a\u000aNow this.
p649
(dp650
g3
I0
sg4
I-1
ssV\u000a&gt; \u000a&gt; This being inherently impossible, there had to be a catch.
p651
(dp652
g3
I-1
sg4
I-1
ssV The problem isn't that youth ministry is killing the church, it is that using different ministries to separate the church is killing the church into youth, seniors, couples, singles, etc without bringing them back together that is killing the church.
p653
(dp654
g3
I-1
sg4
I-1
ssV The conditions you find yourself in are that the government is shut down.
p655
(dp656
g3
I-1
sg4
I-1
ssVVirginia wants the (D)\u000a PUNCxUPPERCASE
p657
(dp658
g3
I0
sg4
I-1
ssVcom) and  Andrew Root (www.
p659
(dp660
g3
I-1
sg4
I-1
ssV I am neither old nor white, but I think there's plenty of room in the Republican Party for values-voters who are firm in their convictions and believe that an age-old, hallowed vestige that has survived for over a millenia - and is, as Pat Buchanan would have it, the cinderblock of every good civilization - should not be reconstructed or demolished without so much as the batting of an eyelash.
p661
(dp662
g3
I-1
sg4
I-1
ssVblogspot.
p663
(dp664
g3
I0
sg4
I-1
ssV"
p665
(dp666
g3
I0
sg4
I-1
ssVwikimedia.
p667
(dp668
g3
I0
sg4
I-1
ssVFunny how the private sector and the wealthy are literally the goose that lays the golden egg....
p669
(dp670
g3
I1
sg4
I-1
ssV  I was a bigot.
p671
(dp672
g3
I0
sg4
I-1
ssV The reason those don't carry over is because they are scams that don't cover shit if you actually get injured.
p673
(dp674
g3
I-1
sg4
I-1
ssV\u000a\u000aWhile correct in many regards, he is simply, politically, incorrect, to advocate electoral boycott, in my analysis.
p675
(dp676
g3
I1
sg4
I-1
ssV \u000a\u000aWanna watch a cat video on YT? PUNCxQUESTION_MARK PUNCxUPPERCASE
p677
(dp678
g3
I-1
sg4
I-1
ssV The GOP is no longer a party with an ideological platform that can convince the masses. PUNCxUPPERCASE
p679
(dp680
g3
I-1
sg4
I-1
ssV\u000a\u000aIf you were to replace "atheist" with "gay" in that conversation...
p681
(dp682
g3
I0
sg4
I-1
ssV With someone there to invest in them and relate to them, they have the full access an adult has to someone to disciple them and help them in their journey with God.
p683
(dp684
g3
I0
sg4
I-1
ssV Timothy Xxxx and 30 others (who I am not friends with / fans of - a few newspapers, and other random pages) posted about it.
p685
(dp686
g3
I-1
sg4
I-1
ssV When Michigan passed its voter ID law, not a single democrat came here ranting and raving some bullshit about racism.
p687
(dp688
g3
I-1
sg4
I-1
ssV why is this even a remotely good idea? PUNCxQUESTION_MARK
p689
(dp690
g3
I-1
sg4
I-1
ssV Really? PUNCxQUESTION_MARK
p691
(dp692
g3
I0
sg4
I-1
ssV Barbara Boxer (D-Calif.
p693
(dp694
g3
I0
sg4
I-1
ssVYet another great rant about how Christians suck at being Christians.
p695
(dp696
g3
I1
sg4
I-1
ssV asians would pay 2.
p697
(dp698
g3
I0
sg4
I-1
ssVThat link is worthy of a post in itself.
p699
(dp700
g3
I1
sg4
I-1
ssV  The biggest problem is that *the law is fundamentally flawed*.
p701
(dp702
g3
I-1
sg4
I-1
ssV  She is the foremost expert of FOUR separate subjects. PUNCxUPPERCASE
p703
(dp704
g3
I1
sg4
I-1
ssV  He says he can pick up the phone, etc, but he hasn't done so yet.
p705
(dp706
g3
I-1
sg4
I-1
ssV (They would mention that too if it were going to be higher, don't you think? PUNCxQUESTION_MARK
p707
(dp708
g3
I-1
sg4
I-1
ssV \u000a\u000aWe have a cultural problem with education.
p709
(dp710
g3
I-1
sg4
I-1
ssV Also, if I've made a stupid mistake here, I'd love to know! PUNCxEXCLAMATION_POINT
p711
(dp712
g3
I-1
sg4
I-1
ssV I can't even...
p713
(dp714
g3
I0
sg4
I-1
ssVThe war on who can vote will only work for so long.
p715
(dp716
g3
I-1
sg4
I-1
ssVIm always shocked that people care about this (of all things) during every Christmas season.
p717
(dp718
g3
I1
sg4
I-1
ssVGod I hope so.
p719
(dp720
g3
I0
sg4
I-1
ssV*\u000a\u000aCapitalism.
p721
(dp722
g3
I0
sg4
I-1
ssVTeach the controversy! PUNCxEXCLAMATION_POINT
p723
(dp724
g3
I0
sg4
I-1
ssVBecause obviously anyone that doesn't agree with you is a bad person, am I right? PUNCxQUESTION_MARK
p725
(dp726
g3
I-1
sg4
I1
ssV"In 2010, more than 20 percent of Texas charter schools reportedly had a religious affiliation.
p727
(dp728
g3
I-1
sg4
I-1
ssV Like, half of Jesus's mission was preaching against the pretentious self righteousness of the religious leaders.
p729
(dp730
g3
I-1
sg4
I-1
ssVI was thinking during this whole shutdown that Republicans were committing political suicide.
p731
(dp732
g3
I-1
sg4
I-1
ssV It is very simple and very efficient.
p733
(dp734
g3
I1
sg4
I-1
ssV They do all the consertive stuff quite well--pandering to big money, spying on citizens, grossly mismanaging public resources.
p735
(dp736
g3
I-1
sg4
I-1
ssV\u000a\u000aObama actually lobbied to kill his own campaign promise on this issue.
p737
(dp738
g3
I-1
sg4
I-1
ssV \u000a\u000aHe's saying this about the freely elected President of the United States of America.
p739
(dp740
g3
I1
sg4
I-1
ssVI had no idea we had this problem with Barack until I read the same reddit article that you did.
p741
(dp742
g3
I-1
sg4
I1
ssV  The author "receives a letter"  with no proof available like a police report or the author contacting the person to discuss the information further and on the same page is an ad for his book about the same topic.
p743
(dp744
g3
I-1
sg4
I-1
ssV Mustard is trending, here is that friend's post, followed by a post by French's that you didn't want to see! PUNCxEXCLAMATION_POINT
p745
(dp746
g3
I-1
sg4
I-1
ssV  If we don't think our institutional disunity is a scandal and threatening to our salvation, then we've missed a large part of what Jesus is about.
p747
(dp748
g3
I-1
sg4
I-1
ssV\u000a\u000a* And I agree because I like that as senator, she has the ability to focus all of her energy on particular key issues \u000a\u000a* I read this article and am in agreement.
p749
(dp750
g3
I1
sg4
I-1
ssV&gt;nifty phenomenon, but still useless nothing\u000a\u000aUnless you are building an optical transistor.
p751
(dp752
g3
I-1
sg4
I-1
ssV  That's why so much anti-incumbent rhetoric exists right now.
p753
(dp754
g3
I-1
sg4
I-1
ssV 5For there is one God, and there is one mediator between God and men, the mana Christ Jesus, 6who gave himself as a ransom for all, which is the testimony given at the proper time.
p755
(dp756
g3
I-1
sg4
I-1
ssV  http://www.
p757
(dp758
g3
I0
sg4
I-1
ssV\u000a\u000aWhen I was in first grade, my parents bought me nice, Crayola-brand markers for class.
p759
(dp760
g3
I1
sg4
I-1
ssVWho the hell would ever allow these people to adopt in the first place?? PUNCxQUESTION_MARK PUNCxINTERROBANG
p761
(dp762
g3
I-1
sg4
I-1
ssV  That's often substantially less than the replacement cost, because the fair market value of a 5 year old computer is pretty low, but you can't easily buy a 5 year old computer as a replacement.
p763
(dp764
g3
I-2
sg4
I-1
ssV  I don't pirate because it's free (it's not -- I pay for services), I pirate because the content is available there at all! PUNCxEXCLAMATION_POINT
p765
(dp766
g3
I-1
sg4
I-1
ssVAnd *patriots! PUNCxEXCLAMATION_POINT
p767
(dp768
g3
I1
sg4
I1
ssVcom/blogs/washington-dc-surpasses-new-york-la-fastest-growing-region-wealth_767299.
p769
(dp770
g3
I0
sg4
I-1
ssV Unfortunately, they elected him based on a lot of hearsay that he himself has contributed to.
p771
(dp772
g3
I-1
sg4
I-1
ssVIt seems horribly unfair - and it is - but if we didn't keep paying them - or if we paid them minimum wage as others have suggested - then the wealthiest politicians would hold out forever until they got what they wanted and people who weren't already rich would be disincentivized to run for office at all.
p773
(dp774
g3
I-1
sg4
I-1
ssV  I'm all for working less, but some of the examples given here are not correct.
p775
(dp776
g3
I-1
sg4
I-1
ssV  When measuring the percent increase in the national debt, the Reagan and GWB administrations' stewardship of the debt was unconscionable. PUNCxUPPERCASE
p777
(dp778
g3
I-1
sg4
I-1
ssV  Unusual.
p779
(dp780
g3
I0
sg4
I-1
ssVIf I'm not mistaken, Members of Congress have constitutional immunity for things done/said on the floor of congress, or while in the exercise of their official duties.
p781
(dp782
g3
I-1
sg4
I-1
ssVhuffingtonpost.
p783
(dp784
g3
I0
sg4
I-1
ssV Same with acid rain, clean water, leaded gasoline, the dustbowl, etc.
p785
(dp786
g3
I-1
sg4
I-1
ssV"Money must *serve*, not rule.
p787
(dp788
g3
I-1
sg4
I-1
ssV What the fuck is the thing, what does it do, how do i use it? PUNCxQUESTION_MARK
p789
(dp790
g3
I-1
sg4
I-1
ssV  He doesn't owe a single job to anyone.
p791
(dp792
g3
I-1
sg4
I-1
ssVRepeal and attempts to alter the existing law are perfectly acceptable and examples of the process at work.
p793
(dp794
g3
I1
sg4
I-1
ssV\u000a\u000ai don't get many door knockers where i live, The 2 times its happened i just answered the door in my underwear and say a polite "kindly fuck off" and that worked.
p795
(dp796
g3
I-1
sg4
I-1
ssV\u000a\u000a&gt;Folks in the top 0.
p797
(dp798
g3
I1
sg4
I-1
ssVNot sure why the downvotes, maybe 'cause it has been posted countless times.
p799
(dp800
g3
I-1
sg4
I-1
ssV But i pirate a LOT fewer movies now. PUNCxUPPERCASE
p801
(dp802
g3
I0
sg4
I-1
ssV And there's some evidence that ancient texts (in the Hebrew Bible and elsewhere) were written to advance a particular theological view (or even to argue that [insert phenomenon] was in fact not a natural event, but a divinely-sanctioned one).
p803
(dp804
g3
I-1
sg4
I-1
ssV Having "never looked into it" your confusion is understandable.
p805
(dp806
g3
I-1
sg4
I-1
ssV It was next to impossible for me to realize king obama actually apologized for his lies.
p807
(dp808
g3
I-1
sg4
I-1
ssV  wish i'd thought of a sign like this.
p809
(dp810
g3
I-1
sg4
I-1
ssV\u000a\u000aTo recap, neither I, nor you, nor they have any *claim* on generosity.
p811
(dp812
g3
I-1
sg4
I-1
ssVI've recently run into these problems with my current pastor.
p813
(dp814
g3
I-1
sg4
I-1
ssVYou've done a really great job keeping track of these.
p815
(dp816
g3
I1
sg4
I-1
ssV  4 years later, he quits his job before he finishes a single term, which was mostly spent campaigning for President.
p817
(dp818
g3
I-1
sg4
I-1
ssVThat girl was as dumb as a toolbox full of hammers.
p819
(dp820
g3
I-1
sg4
I-1
ssV I don't care if he shares my sexual preferences or not - I genuinely do not care.
p821
(dp822
g3
I1
sg4
I-1
ssVAs a current Mainer, I want to point out that Angus is usually the most calm, composed, well-spoken person.
p823
(dp824
g3
I-1
sg4
I-1
ssV This turns the tables of the actions and beliefs of the common democratic liberal on a much smaller, understandable scale, such in a way that is familiar, realistic, and easy for anyone to relate to.
p825
(dp826
g3
I2
sg4
I-1
ssV I did not send the article.
p827
(dp828
g3
I0
sg4
I-1
ssV Murica! PUNCxEXCLAMATION_POINT
p829
(dp830
g3
I0
sg4
I1
ssV\u000a\u000aYou should read the article.
p831
(dp832
g3
I0
sg4
I-1
ssVBut wait bitcoins arent real nothing was really stolen...
p833
(dp834
g3
I-1
sg4
I1
ssVMitch was doing a petty good job of that himself.
p835
(dp836
g3
I0
sg4
I-1
ssV  On video, please.
p837
(dp838
g3
I1
sg4
I-1
ssVI agree with that now, and I agreed with it when I was an atheist.
p839
(dp840
g3
I1
sg4
I-1
ssV \u000a\u000aWhat a bunch of patently ridiculous nonsense.
p841
(dp842
g3
I-1
sg4
I-1
ssV  Shocking.
p843
(dp844
g3
I0
sg4
I1
ssVI think that aspect of the verse lacks punch because:\u000a\u000a1.
p845
(dp846
g3
I-1
sg4
I-1
ssV I love Keller, although I have to say he didn't push hard enough on what sounded a bit like a kind of slippery sophistry coming from Epstein: Appealing to beauty in trying to define what beauty is, assuming there's a place "where we're going," etc.
p847
(dp848
g3
I0
sg4
I-1
ssVAnd? PUNCxQUESTION_MARK
p849
(dp850
g3
I0
sg4
I-1
ssV  \u000a\u000aPlease don't misunderstand, social programs are important, but social programs have failed to universally improve the areas the article addresses.
p851
(dp852
g3
I-1
sg4
I-1
ssV Are we low on chickens? PUNCxQUESTION_MARK
p853
(dp854
g3
I-1
sg4
I-1
ssVIt's already on the books in New York, but the Democratic &amp; Republican politicians think it'd be better to give the billions of dollars back every year rather than fully funding our needed social programs.
p855
(dp856
g3
I-1
sg4
I-1
ssV People LIKE publicly-funded libraries. PUNCxUPPERCASE
p857
(dp858
g3
I0
sg4
I-1
ssV The law would clearly state the the persons would need to be 21 to buy it just like the case is with alcohol.
p859
(dp860
g3
I-1
sg4
I-1
ssV  We haven't even entered the second act yet.
p861
(dp862
g3
I-1
sg4
I-1
ssV  We can just dismiss them all.
p863
(dp864
g3
I-1
sg4
I1
ssV[here's their official info](http://www.
p865
(dp866
g3
I-1
sg4
I-1
ssV\u000a\u000aBet your own fucking paycheck, Boehner.
p867
(dp868
g3
I-1
sg4
I-1
ssV And it will at the same time strike a punishing blow against Republican claims to defend the middle class by restraining government.
p869
(dp870
g3
I-1
sg4
I-1
ssVI assume it's because the secret service still uses some of the same tactics for securing a location.
p871
(dp872
g3
I-1
sg4
I-1
ssV  That's a big part of why it's so important that they don't get away with it this time; this needs to hurt the GOP really, really badly. PUNCxUPPERCASE
p873
(dp874
g3
I-2
sg4
I-1
ssV Its mine and I dont have to give it to you.
p875
(dp876
g3
I1
sg4
I-1
ssV Yes, Al Qaeda had caused more life loss but the GOP has ruined the lives of millions of people and *continue* by fighting exclusively for the wealthy and corporations, taking food from the mouths of the need, the elderly, the young.... PUNCxUPPERCASE
p877
(dp878
g3
I-1
sg4
I-1
ssVThey only help the poor to promote their god to the less fortunate.
p879
(dp880
g3
I-1
sg4
I-1
ssV\u000a\u000a&gt;Perhaps. PUNCxEMOTICON
p881
(dp882
g3
I0
sg4
I-1
ssV\u000a\u000a\u000aI used to Pirate movies, then Netflix came along, and well, i still kinda pirate movies because i find the cinema to be a poor experience and don't want to wait. PUNCxUPPERCASE
p883
(dp884
g3
I-1
sg4
I-1
ssV I had to read it again because I didn't believe that it was him who said it.
p885
(dp886
g3
I-1
sg4
I-1
ssV  Government funded for everyone is the only logical move.
p887
(dp888
g3
I-1
sg4
I-1
ssV\u000a\u000a**rimshot**\u000a\u000athanks folks, i'll be here all week! PUNCxEXCLAMATION_POINT
p889
(dp890
g3
I-1
sg4
I-1
ssV But the headline makes me wonder: is there something about lazy black people that makes them immune to criticism? PUNCxQUESTION_MARK
p891
(dp892
g3
I-1
sg4
I-1
ssV So those children didnt really teach their children about it at all.
p893
(dp894
g3
I-1
sg4
I-1
ssV\u000ahttp://www.
p895
(dp896
g3
I0
sg4
I-1
ssVmedia.
p897
(dp898
g3
I0
sg4
I-1
ssV That was the first lesson in socialism.
p899
(dp900
g3
I0
sg4
I-1
ssVOver a third *of Americans*.
p901
(dp902
g3
I-1
sg4
I-1
ssV\u000a\u000a[52% Worry Government Won't Do Enough for Economy; 62% Want Cuts\u000a](http://www.
p903
(dp904
g3
I-1
sg4
I-1
ssV Blessed [is] the man [that] feareth the LORD, [that] delighteth greatly in his commandments. PUNCxUPPERCASE
p905
(dp906
g3
I-1
sg4
I-1
ssV  But the Jesus Conservatives just *don't*.
p907
(dp908
g3
I-1
sg4
I-1
ssVThe shutdown isn't keeping them from going bankrupt.
p909
(dp910
g3
I-1
sg4
I-1
ssV \u201cThe relationship between science and religion is an up and coming field, and I\u2019m very excited about this class.
p911
(dp912
g3
I1
sg4
I-1
ssVAre you my mummy? PUNCxQUESTION_MARK
p913
(dp914
g3
I-1
sg4
I-1
ssV I'm Jewish and I know of no American Jew who has anything but contempt for Netanyahu and other Israeli right-wingers.
p915
(dp916
g3
I-1
sg4
I-1
ssV  Yes.
p917
(dp918
g3
I0
sg4
I-1
ssVI'd rather see her in a leadership position in Congress with a strong whip rallying the Democrats behind her.
p919
(dp920
g3
I1
sg4
I-1
ssVI'll speak as the Devil's advocate here.
p921
(dp922
g3
I1
sg4
I-1
ssV Walmart is a greedy corporation just like any other and will never change.
p923
(dp924
g3
I-1
sg4
I-1
ssVIf you watched McCain over the past year you'd notice that  he is like a pendulum swinging from sane to crazy and back.
p925
(dp926
g3
I-1
sg4
I-1
ssVDepending on their policy they may have limitations to technology coverage but their agent should have built riders &amp; managed umbrella policies to take these things into account.
p927
(dp928
g3
I-1
sg4
I-1
ssVit's a college bake sale, let's be fair now.
p929
(dp930
g3
I-1
sg4
I-1
ssV And yet today's conservatives call for more of the same.
p931
(dp932
g3
I0
sg4
I-1
ssV\u000a\u000aFor many, religion is the reason for the bigotry, and not simply the excuse.
p933
(dp934
g3
I-1
sg4
I-1
ssV Obama could probably benefit from bumping it up to orange or magenta or whatever.
p935
(dp936
g3
I-1
sg4
I1
ssV\u000a\u000aWhile the free love movement of the 1960s was starting to change that it did not have much of an impact on middle class America.
p937
(dp938
g3
I-1
sg4
I-1
ssVabout.
p939
(dp940
g3
I0
sg4
I-1
ssVHis naivet makes me cringe on the inside.
p941
(dp942
g3
I-1
sg4
I-1
ssV Yes.
p943
(dp944
g3
I0
sg4
I-1
ssVOkay, I get why that name sucks, but hundreds of people couldn't have thought about something better to rally about? PUNCxQUESTION_MARK
p945
(dp946
g3
I-1
sg4
I-1
ssV If we could move our society past its ridiculous sexual hang-ups, porn would cease to be useful as an avenue of blackmail.
p947
(dp948
g3
I-1
sg4
I-1
ssVI don't think it was mocking Obamacare, it was mocking everyone else.
p949
(dp950
g3
I-1
sg4
I-1
ssVWow.....
p951
(dp952
g3
I1
sg4
I-1
ssV It's easily the most important book written yet about the 2008 financial disaster.
p953
(dp954
g3
I-1
sg4
I-1
ssV Pushing what agenda, exactly? PUNCxQUESTION_MARK
p955
(dp956
g3
I0
sg4
I-1
ssV Businesses owned by Muslims could refuse service to Jews, vise versa etc...
p957
(dp958
g3
I-1
sg4
I-1
ssV There are lunatics on the streetcorners but you shouldn't make them Majority Leader in your government.
p959
(dp960
g3
I-1
sg4
I-1
ssVI ask myself this question whenever I think of him.
p961
(dp962
g3
I0
sg4
I-1
ssVcom/2013/01/17/gop-redmap-memo-gerrymandering_n_2498913.
p963
(dp964
g3
I-1
sg4
I-1
ssVRandom and semi-relevant: Mark Warner used to be governor of Virginia and almost everyone loved him.
p965
(dp966
g3
I-1
sg4
I-1
ssV As of wednesday we lost after getting as many people out to vote against privatized water treatment as voted for the mayor in the last election.
p967
(dp968
g3
I-1
sg4
I-1
ssVDone.
p969
(dp970
g3
I0
sg4
I-1
ssV\u000a\u000aThe right recognizes that should a more viable democracy emerge, it will ultimately mean the death of capitalism as we now know it, and of it's moribund form, fascism.
p971
(dp972
g3
I-1
sg4
I-1
ssV" just to hear him cringe.
p973
(dp974
g3
I-1
sg4
I-1
ssVThank you; it wasn't working for me.
p975
(dp976
g3
I1
sg4
I-1
ssV And pretty smooth considering it was sony's engineering director, and not someone that has to do this on a daily basis.
p977
(dp978
g3
I1
sg4
I-1
ssV  I've never heard of it before lately.
p979
(dp980
g3
I0
sg4
I-1
ssV I'm moving to the moon.
p981
(dp982
g3
I1
sg4
I-1
ssV Since Florida has so much trouble with voter fraud, they should not allow anyone to vote.
p983
(dp984
g3
I-1
sg4
I1
ssV\u000a* Proverbs 15:6 In the house of the righteous [is] much treasure: but in the revenues of the wicked is trouble.
p985
(dp986
g3
I-1
sg4
I-1
ssV  [Source](http://useconomy.
p987
(dp988
g3
I-1
sg4
I-1
ssVFuck that, expand! PUNCxEXCLAMATION_POINT
p989
(dp990
g3
I1
sg4
I-1
ssVNote: [Scientists](http://www.
p991
(dp992
g3
I-1
sg4
I-1
ssVYet he still won't give it up...
p993
(dp994
g3
I0
sg4
I-1
ssV The Bible never tries to prove that God exists.
p995
(dp996
g3
I-1
sg4
I-1
ssV" I would reccomend reading his essay of the same name and seriously considerin it's implications.
p997
(dp998
g3
I-1
sg4
I-1
ssV&gt; An unintended side effect of the security measure is that a number of non-malicious extensions that violate Google's terms of service in other ways will effectively be shut out.
p999
(dp1000
g3
I-1
sg4
I-1
ssV  crash their servers, infect their computers, tap into them...
p1001
(dp1002
g3
I1
sg4
I-1
ssV\u000a\u000aIt's no different than Pat Robertson diverting money from his "Operation Blessing" in Zaire to fund his diamond mining operation.
p1003
(dp1004
g3
I-1
sg4
I-1
ssV There is new money in the system, but the same amount of wealth.
p1005
(dp1006
g3
I-1
sg4
I-1
ssV \u000a\u000a* I agree, I didn't think I would agree with you but you made a great case.
p1007
(dp1008
g3
I1
sg4
I-1
ssVAre the people questioning 3d printers because they haven't read the article.
p1009
(dp1010
g3
I0
sg4
I-1
ssVI saw it best said in another cartoon "At no time was the Obama administration aware of what the Obama administration was doing.
p1011
(dp1012
g3
I-1
sg4
I-1
ssVCan't dispute any of it.
p1013
(dp1014
g3
I0
sg4
I-1
ssV**\u000a\u000aFor example, if the GOP said, "Give us what we want or we'll defund the government and force it to shut down," we could easily point to their deliberate act of defunding the government as a terrorist act. PUNCxUPPERCASE
p1015
(dp1016
g3
I-1
sg4
I-1
ssV And for Democrats, it\u2019s a disaster.
p1017
(dp1018
g3
I-1
sg4
I-1
ssVhtml? PUNCxQUESTION_MARK
p1019
(dp1020
g3
I0
sg4
I-1
ssVA true left wing group only a mother could love
p1021
(dp1022
g3
I-1
sg4
I-1
ssVDid he talk at all about how he places personal religious beliefs over the civil rights of others? PUNCxQUESTION_MARK
p1023
(dp1024
g3
I0
sg4
I-1
ssVFor a sub disappointed with Obama, r/politics seems really eager to vote for administration employees.
p1025
(dp1026
g3
I-1
sg4
I-1
ssVMy grandmother got $59 and they just sent her a letter knocking it down to $23.
p1027
(dp1028
g3
I-1
sg4
I-1
ssV\u201d -Evan Sayet \u000a
p1029
(dp1030
g3
I0
sg4
I-1
ssVI've never seen this man as progressive, but you have to admire his political skills.
p1031
(dp1032
g3
I1
sg4
I-1
ssV's report findings through the Washington Post.
p1033
(dp1034
g3
I1
sg4
I-1
ssVaspx#3) with twice the memory.
p1035
(dp1036
g3
I1
sg4
I-1
ssVNow to see whether he will deliver on his promise or not.
p1037
(dp1038
g3
I0
sg4
I-1
ssVI think conditions have changed in the US, such that we no longer need fear the prospect of a Republican resurgence necessitating excessive filibuster protections for Democratic Minorities, going forward. PUNCxUPPERCASE
p1039
(dp1040
g3
I-1
sg4
I-1
ssVhtml)
p1041
(dp1042
g3
I0
sg4
I-1
ssVNothing to see here folks.
p1043
(dp1044
g3
I-1
sg4
I1
ssV Wow.
p1045
(dp1046
g3
I1
sg4
I-1
ssVPity they got rid of the rainbow graph of institutionalized fearmongering.
p1047
(dp1048
g3
I-1
sg4
I1
ssVBecause that gives the minority party an even bigger incentive to force budget bills to fail? PUNCxQUESTION_MARK
p1049
(dp1050
g3
I-1
sg4
I-1
ssV It works great at first, creating a boom.
p1051
(dp1052
g3
I2
sg4
I-1
ssV It is no different than 5 CEOs setting pay for each other.
p1053
(dp1054
g3
I-1
sg4
I-1
ssV \u000a\u000aOther things could have happened as well.
p1055
(dp1056
g3
I-1
sg4
I-1
ssVJust finished listening, it was pretty interesting.
p1057
(dp1058
g3
I-1
sg4
I-1
ssV We came up with God ourselves.
p1059
(dp1060
g3
I0
sg4
I-1
ssV They're people, just like everyone else.
p1061
(dp1062
g3
I-1
sg4
I-1
ssV  13934-13938 (Aug.
p1063
(dp1064
g3
I0
sg4
I-1
ssV  Muslims in the third world are violent and intolerant bigots.
p1065
(dp1066
g3
I-1
sg4
I-1
ssV I know he had some terrible progressive policies in office but before he ran, he was definitely viewed as a strong conservative.
p1067
(dp1068
g3
I1
sg4
I-1
ssVCBS. PUNCxUPPERCASE
p1069
(dp1070
g3
I0
sg4
I-1
ssV Could you tell me? PUNCxQUESTION_MARK
p1071
(dp1072
g3
I0
sg4
I-1
ssV I prefer pointing out specific people who voted for the law rather than lumping everyone together by party name.
p1073
(dp1074
g3
I-1
sg4
I-1
ssVhtml\u000a
p1075
(dp1076
g3
I0
sg4
I-1
ssVA press release right before a long holiday.
p1077
(dp1078
g3
I0
sg4
I-1
ssV Without the cocaine.
p1079
(dp1080
g3
I0
sg4
I-1
ssV the letter is made up BS. PUNCxUPPERCASE
p1081
(dp1082
g3
I0
sg4
I-1
ssV*because they don't have the option of paying for a legitimate copy online at a reasonable price and under reasonable conditions (the ability to play the content on different devices owned by the user being a big one)\u000a\u000aFTFY
p1083
(dp1084
g3
I-1
sg4
I-1
ssVSo basically they use a two minute edited version, which is only his introduction.
p1085
(dp1086
g3
I-1
sg4
I-1
ssV as long as we stand firm, we win.
p1087
(dp1088
g3
I0
sg4
I-1
ssVIf she has aides that update it for her, they could be on furlough.
p1089
(dp1090
g3
I-1
sg4
I-1
ssV  I didn't succeed.
p1091
(dp1092
g3
I-1
sg4
I-1
ssV" There's no compelling evidence that the Apostles taught or believed in the Assumption of Mary other than Sola Ecclesia (the church says so).
p1093
(dp1094
g3
I-1
sg4
I-1
ssVSomething sexy that goes boom versus purchasing health insurance.
p1095
(dp1096
g3
I1
sg4
I-1
ssV There may have been other problems with it, but the two I mentioned were probably the most prominent issues.
p1097
(dp1098
g3
I-1
sg4
I-1
ssV From whence did Yahweh, and Yahweh worship originate? PUNCxQUESTION_MARK
p1099
(dp1100
g3
I-1
sg4
I-1
ssV Now he offered anybody who could do his physics homework $20 to complete it, and who took the challenge, yes my Chinese roommate; who finished it in about 10 minutes.
p1101
(dp1102
g3
I-1
sg4
I-1
ssV  \u000a\u000aD. PUNCxUPPERCASE
p1103
(dp1104
g3
I0
sg4
I-1
ssV The web isn't the problem, nor are the parents.
p1105
(dp1106
g3
I-1
sg4
I-1
ssV I don't care if he is black, white, orange or any color that the human eye can see.
p1107
(dp1108
g3
I-1
sg4
I-1
ssV&gt; I know you're terrified that your little experiment is dying\u000a\u000aYou keep telling yourself that if it helps you sleep at night.
p1109
(dp1110
g3
I-1
sg4
I-1
ssVIt's mind-boggling that it's that high.
p1111
(dp1112
g3
I1
sg4
I-1
ssV  Benefits of devoting yourself to telling others how they should live their lives? PUNCxQUESTION_MARK
p1113
(dp1114
g3
I-1
sg4
I-1
ssVcom/2009/04/black-man-tea-party.
p1115
(dp1116
g3
I0
sg4
I-1
ssVNo shit Sherlock...
p1117
(dp1118
g3
I0
sg4
I-1
ssV  Possibly, yes.
p1119
(dp1120
g3
I0
sg4
I-1
ssV We expect everyone to be high achievers and work white collar jobs making very high wages.
p1121
(dp1122
g3
I1
sg4
I-1
ssVLet us be clear here - it is do-nothing Republicans.
p1123
(dp1124
g3
I-1
sg4
I-1
ssV  I was talking to him about metaphorical interpretations of certain passages in the bible that have been traditionally read literally.
p1125
(dp1126
g3
I0
sg4
I-1
ssVhtml)\u000a\u000aGerrymandering the electoral college to make sure a republican candidate gets electoral votes\u000a[Source](http://www.
p1127
(dp1128
g3
I-1
sg4
I-1
ssV You don't have to prepare a cogent argument when this moron is presenting the other side.
p1129
(dp1130
g3
I-1
sg4
I-1
ssVI literally just purchased 4 ps3 games for 10$ a pop.
p1131
(dp1132
g3
I-1
sg4
I-1
ssV\u000a\u000a"You stopped watching movies because you go ride in the woods? PUNCxQUESTION_MARK
p1133
(dp1134
g3
I-1
sg4
I-1
ssV  I really want to know, because this type of bullshit generalization is a cheap and empty tactic.
p1135
(dp1136
g3
I-1
sg4
I-1
ssVI had the some thing happen to be today.
p1137
(dp1138
g3
I0
sg4
I-1
ssV\u000a\u000aI do draw the line at Memorial Day though. PUNCxUPPERCASE
p1139
(dp1140
g3
I1
sg4
I-1
ssVgov healthcare website.
p1141
(dp1142
g3
I0
sg4
I-1
ssVandrewroot.
p1143
(dp1144
g3
I0
sg4
I-1
ssVunless we fuck everything up, then the government can bail us out"
p1145
(dp1146
g3
I-1
sg4
I-1
ssV\u000a\u000aMy health premiums dropped dramatically also, but I am paying *way* more than you.
p1147
(dp1148
g3
I-1
sg4
I-1
ssVYou can see more Pat on [The McLaughlin Group's Youtube Channel](http://www.
p1149
(dp1150
g3
I-1
sg4
I-1
ssV As someone actively trying to start a business right now, I can tell you that demand side has no effect on my business plan, as I only intend to sell my product for $3-10, which is what I believe the market can handle.
p1151
(dp1152
g3
I-1
sg4
I-1
ssVWould they need to be college educated? PUNCxQUESTION_MARK
p1153
(dp1154
g3
I0
sg4
I-1
ssV[deleted]
p1155
(dp1156
g3
I0
sg4
I-1
ssVhtm), *Science Daily* (Aug.
p1157
(dp1158
g3
I-1
sg4
I-1
ssVWatching McCain these days is like watching a political take on "The Notebook", but without the sadness...
p1159
(dp1160
g3
I-1
sg4
I-1
ssVcom/watch? PUNCxQUESTION_MARK
p1161
(dp1162
g3
I0
sg4
I-1
ssV  It's trite nothingness.
p1163
(dp1164
g3
I-1
sg4
I-1
ssV  Right up until they work out that you won't definitely get an STD the first time they sleep with someone. PUNCxUPPERCASE
p1165
(dp1166
g3
I-1
sg4
I-1
ssV Sooner or later this is bound to happen.
p1167
(dp1168
g3
I-1
sg4
I-1
ssV At least for the 30-40 odd gerrymandered Deep South House seats the GOP created that ensure that, even with a national Democratic sweep, they'll remain Republican districts. PUNCxUPPERCASE
p1169
(dp1170
g3
I-1
sg4
I-1
ssV Progressives are consistently at the forefront of social justice? PUNCxQUESTION_MARK
p1171
(dp1172
g3
I0
sg4
I-1
ssVThis isn't the Air Force oath, it is the cadet honor oath that they take at the end of basic training "I will not lie, steal or cheat, nor tolerate among us anyone who does, furthermore I resolve to do my duty and live honorably, (so help me god).
p1173
(dp1174
g3
I-1
sg4
I-1
ssV\u000a\u000a\u000a&gt; I love jesus because ____________\u000a\u000a
p1175
(dp1176
g3
I1
sg4
I-1
ssV\u000a\u000aYes yes, I know, erosion of liberty, etc.
p1177
(dp1178
g3
I-1
sg4
I-1
ssV The new age on the rise in this nation is concerned more about the new iphone and kanye west's baby then their own rights and healthcare.
p1179
(dp1180
g3
I-1
sg4
I-1
ssVI'm gonna call him up and act like this is the greatest idea in the world and that he's a political genius for doing it..
p1181
(dp1182
g3
I1
sg4
I-1
ssV  I like Rep.
p1183
(dp1184
g3
I0
sg4
I-1
ssVObama is a center right moderate and he gets painted as a left wing radical.
p1185
(dp1186
g3
I1
sg4
I-1
ssV And his son has learned well.
p1187
(dp1188
g3
I1
sg4
I-1
ssV \u000a\u000aThe rest just recognised that the vote would pass with or without them, and so had the freedom to vote against, thereby maintaining their ideological purity at no cost to the nation or consequences for themselves.
p1189
(dp1190
g3
I-1
sg4
I-1
ssV  Completely the opposite.
p1191
(dp1192
g3
I-1
sg4
I-1
ssVI'm an atheist and a vet.
p1193
(dp1194
g3
I-1
sg4
I-1
ssV What's interesting is that if you read more than the dust jacket he basically admits as much, arguing that while these relationships were meant to be celibate they probably didn't all live up to the ideal and that this created a social niche for homosexual men while not being exclusive to them.
p1195
(dp1196
g3
I-1
sg4
I-1
ssV \u000a\u000aWilling to bet it was islam and not pastafarians....
p1197
(dp1198
g3
I0
sg4
I-1
ssV If you've EVER thought that Christian Hip-hop is awful or a silly notion, you need to listen to this dude. PUNCxUPPERCASE
p1199
(dp1200
g3
I-1
sg4
I-1
ssVcom/2009/03/reckless-self-endangerment-is-not.
p1201
(dp1202
g3
I0
sg4
I-1
ssVQuite frankly, it was Obama that made me independent.
p1203
(dp1204
g3
I-1
sg4
I-1
ssV Most of the time I'm treated just like any other person, but when I do encounter racism, I'm just treated like any other black person.
p1205
(dp1206
g3
I-1
sg4
I-1
ssVSweet! PUNCxEXCLAMATION_POINT
p1207
(dp1208
g3
I0
sg4
I-1
ssV People are fed up with Cuomo, and he's polling in the toilet.
p1209
(dp1210
g3
I-1
sg4
I-1
ssV  But either way, this makes sense.
p1211
(dp1212
g3
I1
sg4
I-1
ssVThis thread reminded me of [this](http://youtu.
p1213
(dp1214
g3
I-1
sg4
I-1
ssV why not? PUNCxQUESTION_MARK
p1215
(dp1216
g3
I0
sg4
I1
ssVBible says "fear of man brings a trap".
p1217
(dp1218
g3
I0
sg4
I-1
ssVI'm not a fan of abstinence education anyway, but assuming you want it to work...
p1219
(dp1220
g3
I-1
sg4
I-1
ssVThis joke is so boring now.
p1221
(dp1222
g3
I-1
sg4
I-1
ssV Hint: Mary endured one of those.
p1223
(dp1224
g3
I0
sg4
I-1
ssVthecomedynetwork.
p1225
(dp1226
g3
I0
sg4
I-1
ssV&gt;Darwin\u000a&gt;Promote creationism\u000a\u000aThis isn't your everyday stupid. PUNCxEMOTICON
p1227
(dp1228
g3
I-1
sg4
I-1
ssV  I guess democrats have all the answers to all the world's problems and republicans have nothing good to say whatsoever.
p1229
(dp1230
g3
I-1
sg4
I1
ssV But then they spend hours on the floor complaining about him negotiating with foreign leaders instead of acting as a liaison between Democrats and Republicans in Congress.
p1231
(dp1232
g3
I-1
sg4
I-1
ssV However this is the hardest part of being an A&amp;M grad.
p1233
(dp1234
g3
I0
sg4
I-1
ssV  However, the contemporary sense at the time was very clearly that it was "a solemn declaration of reformation of the Church around the Gospel's message," not as a call to be "*always criticizing* everything that isn't us" like this article seems to imply.
p1235
(dp1236
g3
I0
sg4
I-1
ssV Governor and both state senators are all Democrats.
p1237
(dp1238
g3
I-1
sg4
I-1
ssV  Holt and all, but this is going nowhere.
p1239
(dp1240
g3
I-1
sg4
I-1
ssV)
p1241
(dp1242
g3
I0
sg4
I-1
ssV (Andrew Root goes into detail on that huge point [here](http://www.
p1243
(dp1244
g3
I-1
sg4
I-1
ssVThis would be a fucking nightmare to have to go through after such a traumatizing experience.
p1245
(dp1246
g3
I-1
sg4
I-1
ssV You think Canada has strict regulation of the Financial sector...
p1247
(dp1248
g3
I0
sg4
I-1
ssVYou must know the opposition will continue to push and push and will certainly go right up to the point where he has no choice but to stop them.
p1249
(dp1250
g3
I0
sg4
I-1
ssVorg/wiki/United_States_federal_government_shutdown_of_1995_and_1996
p1251
(dp1252
g3
I0
sg4
I-1
ssV\u000a\u000aBut then because they don't see what else they can do, they write up even more laws and regulations, that either do nothing, or hinder more freedom and production.
p1253
(dp1254
g3
I-1
sg4
I-1
ssVShe's not quiet, she's not revolutionary, and she's not going to run in 2016
p1255
(dp1256
g3
I-2
sg4
I-1
ssVWhen scientists make models predicting warming and basically every single model is wrong, how can you say you are more certain warming is caused by humans.
p1257
(dp1258
g3
I-1
sg4
I-1
ssV"\u000a\u000aNow THATS funny. PUNCxUPPERCASE
p1259
(dp1260
g3
I1
sg4
I-1
ssVjpg)
p1261
(dp1262
g3
I0
sg4
I-1
ssVthen you're gonna get kicked out of the tea party AND the Moral Majority AND the American Family Association and Pat Robertson will call a hurricane right down on your ass PUNCxUPPERCASE
p1263
(dp1264
g3
I-1
sg4
I-1
ssV \u000a\u000aThe outcome you want is basic sanitation for obvious reasons.
p1265
(dp1266
g3
I-1
sg4
I-1
ssV On an order of magnitude of how far off Creationists are it's equivalent to believing that New York City and Los Angeles are like 20ft away from each other.
p1267
(dp1268
g3
I-1
sg4
I-1
ssV Listening to someone use "Lord" as a filler in prayer just as you'd use "Um" or "Like".
p1269
(dp1270
g3
I-1
sg4
I-1
ssVpng).
p1271
(dp1272
g3
I0
sg4
I-1
ssVPro-Hilary propaganda.
p1273
(dp1274
g3
I-1
sg4
I-1
ssV Thank you.
p1275
(dp1276
g3
I1
sg4
I-1
ssV Why didn\u2019t Jesus tell him? PUNCxQUESTION_MARK
p1277
(dp1278
g3
I-1
sg4
I-1
ssV5% GDP except during wars. PUNCxUPPERCASE
p1279
(dp1280
g3
I-1
sg4
I-1
ssV\u000a\u000aEdit: Meant to say convention.
p1281
(dp1282
g3
I0
sg4
I-1
ssV  That's like a garbage man not picking up the trash for month and complaining that there's too much trash everywhere.
p1283
(dp1284
g3
I-1
sg4
I-1
ssVLet me guess....
p1285
(dp1286
g3
I0
sg4
I-1
ssV  And more people are coming to our side all the time.
p1287
(dp1288
g3
I1
sg4
I-1
ssV after I rope him in, hit him with "Putting Allah in all public schools is amazing! PUNCxEXCLAMATION_POINT
p1289
(dp1290
g3
I1
sg4
I-1
ssVObama supporters will never read or acknowledge that list exists and instead will just chant Hope and Change.
p1291
(dp1292
g3
I-1
sg4
I-1
ssV \u000a\u000a\u000aOne plant closes, another opens with lower operational cost.
p1293
(dp1294
g3
I-1
sg4
I-1
ssV Stuff like this gives me the hope that we'll end up with the materials and technology to maybe get there by then.
p1295
(dp1296
g3
I1
sg4
I-1
ssV If Republicans can come up with a decent candidate, Cuomo won't get reelected.
p1297
(dp1298
g3
I-1
sg4
I-1
ssVHey, I'm all for this, but damn...
p1299
(dp1300
g3
I0
sg4
I-1
ssVI think you mean people that they will be hiring in a few years.
p1301
(dp1302
g3
I0
sg4
I-1
ssV+/u/bitcointip @wazzel2u $1\u000a..
p1303
(dp1304
g3
I-1
sg4
I-1
ssV\u000a\u000aMy bible foo isn't exactly waterproof but I'm pretty sure that adam's penalty was banishment from the garden where the fields had to be worked in order for shit to grow.
p1305
(dp1306
g3
I-1
sg4
I-1
ssV \u000aIf liberal leaning churches get to advocate for Obamacare, a law passed only by Democrats, then the conservative congregations get to denounce it.
p1307
(dp1308
g3
I-1
sg4
I-1
ssV I want him to be a good leader.
p1309
(dp1310
g3
I-1
sg4
I-1
ssVif it works, or you think it will, and you have funding, go for it......
p1311
(dp1312
g3
I-1
sg4
I-1
ssV Some jobs will be lost, but that happens when your business model fails to be competitive.
p1313
(dp1314
g3
I-1
sg4
I-1
ssV Amongst all that we collectively still found time to rip people off, poison, and rape them.
p1315
(dp1316
g3
I-1
sg4
I-1
ssVFunny how I've been told by Democrats to shut my whore mouth every time I predict he'll do this type of stuff.
p1317
(dp1318
g3
I1
sg4
I-1
ssV Before we even get to those unable to find work.
p1319
(dp1320
g3
I-1
sg4
I-1
ssV Even the children know the unions are disingenuous at times.
p1321
(dp1322
g3
I-1
sg4
I-1
ssV\u000a\u000aNot that their shit isn't broken and needs work done, but in the meantime, you can reduce some of the bullshit.
p1323
(dp1324
g3
I-1
sg4
I-1
ssV\u000a\u000aYou can practically *smell* those "Biblical Principles", amirite? PUNCxQUESTION_MARK
p1325
(dp1326
g3
I-1
sg4
I1
ssV  That's all the rigorous proof anyone needs, right:\u000a\u000a&gt;"My boyfriend would pray with me for God to reveal himself to me.
p1327
(dp1328
g3
I-1
sg4
I-1
ssVImpose a $5,000 fee for normal citizens running their mouths, while allowing corporations to get away with things like destroying entire communities and ecosystems for free.
p1329
(dp1330
g3
I-1
sg4
I-1
ssV\u000a\u000aThat is not a phenomenon that started with the health care act.
p1331
(dp1332
g3
I-1
sg4
I-1
ssV or decreasing? PUNCxQUESTION_MARK
p1333
(dp1334
g3
I0
sg4
I-1
ssVI don't even get this kind of argument.
p1335
(dp1336
g3
I-1
sg4
I-1
ssV\u000a\u000aHell, people are furious at the president because their terrible fake insurance is being replaced by cheaper insurance that actually insures them.
p1337
(dp1338
g3
I-1
sg4
I-1
ssVyes, blow up the financial sector, what could possibly go wrong?? PUNCxQUESTION_MARK PUNCxINTERROBANG
p1339
(dp1340
g3
I-1
sg4
I1
ssVThis is my fucking senator...
p1341
(dp1342
g3
I0
sg4
I-1
ssVthey will snap.
p1343
(dp1344
g3
I0
sg4
I-1
ssV  THROW STONES AT HER UNTIL SHE IS DEAD ALLAH AHKBAR PUNCxUPPERCASE
p1345
(dp1346
g3
I-1
sg4
I1
ssV  I think there is enough evidence to suggest they are sentient.
p1347
(dp1348
g3
I0
sg4
I-1
ssVorg/news/fracking-triggered-more-than-100-earthquakes-in-ohio/), *Grist* (September 5, 2013).
p1349
(dp1350
g3
I-1
sg4
I-1
ssV It is likely that a statistically large number of self-identified Christians fall into the Egonovism category.
p1351
(dp1352
g3
I-1
sg4
I-1
ssVcom/2012/09/28/florida-voter-registration_n_1923690.
p1353
(dp1354
g3
I-1
sg4
I-1
ssV\u000a\u000aIt's sad how much power Religion has to poison even great minds.
p1355
(dp1356
g3
I1
sg4
I-1
ssVWork, ain't nobody got time for dat! PUNCxEXCLAMATION_POINT
p1357
(dp1358
g3
I-1
sg4
I-1
ssVShe must have taken the Parsing Graduate Course from Bill Clinton.
p1359
(dp1360
g3
I0
sg4
I1
ssV\u000a* James 5:1 Go to now, [ye] rich men, weep and howl for your miseries that shall come upon [you].
p1361
(dp1362
g3
I-1
sg4
I-1
ssVgif)
p1363
(dp1364
g3
I0
sg4
I-1
ssV\u201d\u000a\u000aThis sounds like Discovery Institute crap.
p1365
(dp1366
g3
I-1
sg4
I-1
ssVShe's a uniter.
p1367
(dp1368
g3
I1
sg4
I1
ssV Also, since the study also includes people in prison, where a lot of people convert because of desperation, its not really reliable in that sense.
p1369
(dp1370
g3
I-1
sg4
I-1
ssV I was home with my older brother.
p1371
(dp1372
g3
I0
sg4
I-1
ssVI observe this every day.
p1373
(dp1374
g3
I0
sg4
I-1
ssVWow.
p1375
(dp1376
g3
I1
sg4
I-1
ssV this website must be a subsidiary of The Onion, right?... PUNCxQUESTION_MARK
p1377
(dp1378
g3
I0
sg4
I-1
ssVI agree.
p1379
(dp1380
g3
I0
sg4
I-1
ssVI see confederate flags all over Michigan.
p1381
(dp1382
g3
I-1
sg4
I-1
ssVFrom the article:\u000a\u000a&gt; While there is a possibility that this administrator would have similarly overreacted had the employee worn a George W.
p1383
(dp1384
g3
I-1
sg4
I-1
ssV Yet when I explain to these Catholics who are also opposed to abortion and gay marriage because of the Church's teachings that Pope Francis in accordance with years of Catholic social justice teachings stated that healthcare is "inalienable right" and a "moral responsibility" of the gov't.
p1385
(dp1386
g3
I0
sg4
I-1
ssV It is worse if you are receiving the throw untrained and cuffed.
p1387
(dp1388
g3
I-2
sg4
I-1
ssV The majority of people are not politically minded and don't tune in all night to political shows or read political periodicals.
p1389
(dp1390
g3
I-1
sg4
I-1
ssVabstract), *Science*, Vol.
p1391
(dp1392
g3
I-1
sg4
I-1
ssVWarren "surges" to 7 percent support vs.
p1393
(dp1394
g3
I-1
sg4
I-1
ssV They should sell it and use the money to better equip anti poaching agencies, but then this would probably lead to much more poaching by corruption.
p1395
(dp1396
g3
I-1
sg4
I-1
ssV and they want me to switch over to the google plus one but it doesn't carry over my subscriptions.
p1397
(dp1398
g3
I-1
sg4
I-1
ssVTo be honest, as a biracial person (black dad, white mom) living in the Midwest, I've never encountered any bigotry unique to my circumstance.
p1399
(dp1400
g3
I-1
sg4
I-1
ssVI wish that they would point out that the misogynist guy was also misandrist; "a culture of immodest women is by necessity a culture of uncommitted men".
p1401
(dp1402
g3
I-1
sg4
I-1
ssV This was basically a race between Cuccinelli and not-Cuccinelli.
p1403
(dp1404
g3
I0
sg4
I-1
ssV Had zero problems.
p1405
(dp1406
g3
I-1
sg4
I-1
ssV However, they assume that the rocks natural processes were always like this, and they are not taking in the account of a possible global flood that may have lasted roughly a year(Yes, I know if you are Atheist you more than likely don't believe this story to be true).
p1407
(dp1408
g3
I0
sg4
I-1
ssVRemind me again why this big-money political action committee enjoys tax-exempt status? PUNCxQUESTION_MARK
p1409
(dp1410
g3
I-1
sg4
I-1
ssV It will relegitimize middle-class dependence for "security" on government spending and regulation.
p1411
(dp1412
g3
I-1
sg4
I-1
ssVObamacare is much more than the website.
p1413
(dp1414
g3
I0
sg4
I-1
ssVChristians can't be Republicans either, but you don't see that affecting them.
p1415
(dp1416
g3
I-1
sg4
I-1
ssV It has such a religious influence because of the area and the high numbers of catholic (and other Christian) students.
p1417
(dp1418
g3
I-1
sg4
I-1
ssV I'm not taking a side.
p1419
(dp1420
g3
I-1
sg4
I-1
ssV Thanks for sharing! PUNCxEXCLAMATION_POINT
p1421
(dp1422
g3
I1
sg4
I-1
ssV Obamacare will take down with it more than Mary Landrieu and Co.
p1423
(dp1424
g3
I0
sg4
I-1
ssV  \u000aThe guy says that he misinterpreted when someone else told him 5 million.
p1425
(dp1426
g3
I0
sg4
I-1
ssV \u000a\u000aAbsolutely I think youth ministry MUST be intergenerational. PUNCxUPPERCASE
p1427
(dp1428
g3
I-1
sg4
I-1
ssV\u000a\u000aBoehner just ignored the question and talked about something else.
p1429
(dp1430
g3
I-1
sg4
I-1
ssVLets start with mandatory drug testing.
p1431
(dp1432
g3
I-1
sg4
I-1
ssV\u000a\u000aIf you talk to a "right winger" in Fox news terms, then they *hate* big government, Obama, socialized medicine, taxes, etc etc etc.
p1433
(dp1434
g3
I-1
sg4
I-1
ssV That was the basically one-sided compromise that Democrats that netted them zero extra support from Republicans.
p1435
(dp1436
g3
I-1
sg4
I-1
ssV It sows the seeds and lays the groundwork for ordered liberty, civil government, and moral restraints on the insatiable appetite for avarice and sin.
p1437
(dp1438
g3
I-1
sg4
I-1
ssV \u000a\u000aWe will progress as a nation one funeral at a time.
p1439
(dp1440
g3
I1
sg4
I-1
ssV  It doesn't matter if he thought he was doing right at the time, he was wrong and we continue to pay the price for that.
p1441
(dp1442
g3
I-1
sg4
I-1
ssV  For GWB, $6. PUNCxUPPERCASE
p1443
(dp1444
g3
I0
sg4
I-1
ssV cheaper, more efficient, and cleaner.
p1445
(dp1446
g3
I1
sg4
I-1
ssV I'm embarrassed to say I voted for him, and I'm not alone in saying that.
p1447
(dp1448
g3
I-1
sg4
I-1
ssV\u000a\u000aAs a demonstration of both flat-out cynicism and the dysfunction inherent in the US political system, it couldn't really be much more perfect.
p1449
(dp1450
g3
I-1
sg4
I-1
ssVI'm curious about this as well.
p1451
(dp1452
g3
I1
sg4
I-1
ssVWe're going to end up having it out with these bozos.
p1453
(dp1454
g3
I-1
sg4
I-1
ssV I like how page 3 points out how riddiculous the accepted story is, really funny page :)\u000aThat said it seems to be pretentious "This is the truth... PUNCxEMOTICON
p1455
(dp1456
g3
I0
sg4
I-1
ssV at this point I can;t always be sure
p1457
(dp1458
g3
I0
sg4
I-1
ssV&gt;  It is very difficult, more so in our culture, to be as caring as Christ.
p1459
(dp1460
g3
I-1
sg4
I-1
ssVI love the idea but no one in DC would ever let this happen.
p1461
(dp1462
g3
I-1
sg4
I-1
ssV\u000a\u000aReps keep making extreme demands, so much so that status quo policies start to seem like Democrat victories.
p1463
(dp1464
g3
I1
sg4
I-1
ssV About 830,000 children under 18 die every year, and millions more children suffer disabling injuries that could have been prevented, says Dr.
p1465
(dp1466
g3
I-1
sg4
I-1
ssV Here is the full, official deal: http://www.
p1467
(dp1468
g3
I0
sg4
I-1
ssV Moreover, those at the very top have no incentive whatsoever for revealing or changing the rules.
p1469
(dp1470
g3
I-1
sg4
I-1
ssV Eventually they all agreed on this brilliant plan, they'd stage some photos, spin it around as the Dems refusal to work with them, then finally get what they want and look like a party that can get things done.
p1471
(dp1472
g3
I-1
sg4
I-1
ssV  Healthcare is more expensive here because we pay geometrically more for the same services.
p1473
(dp1474
g3
I-1
sg4
I-1
ssV \u000a\u000aHe's saying this about a president who is trying to push through legislation that I feel is necessary, if we're ever going to improve on our current healthcare system.
p1475
(dp1476
g3
I1
sg4
I-1
ssV" It is NOT right, and most will consider it tantamount to the same thing, but Im trying to explain that it is a very *carefully strategized* tactic to give them an out from responsibility. PUNCxUPPERCASE
p1477
(dp1478
g3
I-1
sg4
I-1
ssVIf the goal of economic policy since 1980 was to consolidate as much of the currency from the pockets of many into that of the few, job well fuckin done.
p1479
(dp1480
g3
I1
sg4
I-1
ssV\u000a\u000aHas anyone told them the Pope accepts evolution as a scientifically valid theory? PUNCxQUESTION_MARK
p1481
(dp1482
g3
I-1
sg4
I-1
ssV Failure to act is not the same as acting.
p1483
(dp1484
g3
I-1
sg4
I-1
ssVWhat a condescending, pretentious little brat.
p1485
(dp1486
g3
I-1
sg4
I-1
ssV The Bible demands that we as Christians are still to love them the same, and for anyone who believes that we are not, you obviously do not read the Bible, where it says to love everybody.
p1487
(dp1488
g3
I0
sg4
I-1
ssVShould've made a joke about sending her off to Pakistan or being honor killed for embracing western values.
p1489
(dp1490
g3
I-1
sg4
I-1
ssV50247/full), *Journal of Geophysical Research: Solid Earth*, Vol.
p1491
(dp1492
g3
I-1
sg4
I-1
ssVCorrect me if I'm wrong, but isn't Obamacare one of the govt services that would be exempt from de-funding? PUNCxQUESTION_MARK
p1493
(dp1494
g3
I-1
sg4
I-1
ssV He's not a liberal either.
p1495
(dp1496
g3
I-1
sg4
I-1
ssV 30.
p1497
(dp1498
g3
I0
sg4
I-1
ssV The public option does not exist.
p1499
(dp1500
g3
I-1
sg4
I-1
ssV What the hell?! PUNCxEXCLAMATION_POINT PUNCxQUESTION_MARK PUNCxINTERROBANG
p1501
(dp1502
g3
I0
sg4
I-1
ssV\u000a\u000aThe best false hoods are 95% truth and 5% lie
p1503
(dp1504
g3
I-1
sg4
I-1
ssV  Most people, regardless of political affiliation, can agree she's horrible.
p1505
(dp1506
g3
I-1
sg4
I-1
ssV They've been chipping away as Social Security, voting rights, womens health and more for decades with notable success.
p1507
(dp1508
g3
I-1
sg4
I-1
ssV  The question is *how come you, presumably an adult, are not scared of people who feel justified in ruining you if you disobey them*? PUNCxQUESTION_MARK
p1509
(dp1510
g3
I0
sg4
I-1
ssVWhat's a Dennis Miller? PUNCxQUESTION_MARK
p1511
(dp1512
g3
I0
sg4
I1
ssVPeople who don't understand this are idiots.
p1513
(dp1514
g3
I-1
sg4
I-1
ssVI'm kind of skeptical.
p1515
(dp1516
g3
I1
sg4
I-1
ssV A long running campaign to paint them as the cheap crap store that pays crappy wages to sell cheap crap cheaply is the way to go IMO. PUNCxUPPERCASE
p1517
(dp1518
g3
I-2
sg4
I-1
ssV If they are going to call whoever we nominate a radical, why not actually nominate a real liberal? PUNCxQUESTION_MARK
p1519
(dp1520
g3
I-1
sg4
I-1
ssV So in essence, Mr.
p1521
(dp1522
g3
I0
sg4
I-1
ssV It would mean that the master race has evolved from some lower beings.
p1523
(dp1524
g3
I-1
sg4
I-1
ssVHappy Veterans Day! PUNCxEXCLAMATION_POINT
p1525
(dp1526
g3
I0
sg4
I1
ssVThat's how I like to play monopoly! PUNCxEXCLAMATION_POINT
p1527
(dp1528
g3
I1
sg4
I-1
ssV Then watch as all the greedy consumers burn the place to the ground.
p1529
(dp1530
g3
I-1
sg4
I-1
ssV It's less expensive than our current system, but it's paid for through tax money.
p1531
(dp1532
g3
I-1
sg4
I-1
ssV And I think that anyone **who is thinking about maybe being an atheist**, if you read the Bible or the Koran or the Torah, cover to cover, I believe will emerge from that as an atheist.
p1533
(dp1534
g3
I-1
sg4
I-1
ssV He is one of the reasons I think the idea of Karma is a crock of shit.
p1535
(dp1536
g3
I-1
sg4
I-1
ssV  The Republican support of corporations and the rich help only a select few.
p1537
(dp1538
g3
I1
sg4
I-1
ssV But that doesnt mean Iowa wants to pay the upkeep costs forever after that.
p1539
(dp1540
g3
I-1
sg4
I-1
ssV[New Definitions](http://i.
p1541
(dp1542
g3
I-1
sg4
I-1
ssV Having the Bible is a big plus.
p1543
(dp1544
g3
I1
sg4
I-1
ssVwhat the hell is wrong with ending white privilege? PUNCxQUESTION_MARK
p1545
(dp1546
g3
I-1
sg4
I-1
ssV Very jingoistic.
p1547
(dp1548
g3
I1
sg4
I-1
ssV Hell, even my college let out.
p1549
(dp1550
g3
I-1
sg4
I-1
ssV\u000a\u000aThey have been rewarded for abusing the system over and over again, to the point that we are on the verge of that *becoming* the system.
p1551
(dp1552
g3
I-1
sg4
I-1
ssVPat Robertson fits the bill for sure.
p1553
(dp1554
g3
I1
sg4
I-1
ssV\u000aB. PUNCxUPPERCASE
p1555
(dp1556
g3
I0
sg4
I1
ssV&gt;Vermont also has yet to answer how it will cover everyone.
p1557
(dp1558
g3
I1
sg4
I-1
ssVThey do that because it works.
p1559
(dp1560
g3
I1
sg4
I-1
ssV I had never heard a pastor talk about the things he did.
p1561
(dp1562
g3
I0
sg4
I-1
ssVorg/wiki/Petra) unit, equivalent to the amount of data you can carve into a cliff.
p1563
(dp1564
g3
I-1
sg4
I-1
ssV&gt;In Washington state a Christian homeschooling couple received maximum prison sentences allowable under the law after being found guilty of beating and starving their adopted daughter to death in accord with Biblical based parenting techniques.
p1565
(dp1566
g3
I-1
sg4
I-1
ssVThe quick and dirty: [the judge] sentenced Carri Williams to 37 years in prison.
p1567
(dp1568
g3
I-1
sg4
I-1
ssV  There are a lot of hadiths, and scholarly rulers, history and tradition in Islam as well.
p1569
(dp1570
g3
I1
sg4
I-1
ssV creationism.
p1571
(dp1572
g3
I0
sg4
I-1
ssV  \u000a\u000aThanks Obama! PUNCxEXCLAMATION_POINT
p1573
(dp1574
g3
I1
sg4
I1
ssV \u000a\u000aOh, wait,  its not hateful and it doesnt further their agenda.
p1575
(dp1576
g3
I-1
sg4
I1
ssVN.
p1577
(dp1578
g3
I0
sg4
I-1
ssV If only for my own personal amusement.
p1579
(dp1580
g3
I0
sg4
I-1
ssV Those children taught their children about it but it was a generation removed.
p1581
(dp1582
g3
I1
sg4
I-1
ssV"Money does grow off trees, right? PUNCxQUESTION_MARK
p1583
(dp1584
g3
I0
sg4
I1
ssVIt most definitely is.
p1585
(dp1586
g3
I1
sg4
I-1
ssV  In other words, he told me to shut up and stop asking questions.
p1587
(dp1588
g3
I-1
sg4
I-1
ssV :O Like I can't even be relieved/happy about the victory because I am just depressed about how close it still was...
p1589
(dp1590
g3
I-1
sg4
I-1
ssVThe perimeters around this relaunching were kept incredibly vague so the administration would be able to call any outcome a success.
p1591
(dp1592
g3
I-1
sg4
I-1
ssV&gt;How Do We Ensure Art Is Made And Available\u000a\u000aBy making sure Artists are paid.
p1593
(dp1594
g3
I-1
sg4
I-1
ssV\u000a\u000aWynn is a bad example for "corporate greed" as he is an example of someone who has actually built something from nothing.
p1595
(dp1596
g3
I-1
sg4
I-1
ssVFeinstein is a complete tool, any "reforms" from her are likely utter rubbish.
p1597
(dp1598
g3
I-1
sg4
I-1
ssV Koreans) were all selling their stuff awaiting the second coming.
p1599
(dp1600
g3
I0
sg4
I-1
ssV  \u000a\u000aThis is why Cooch supporters changed it to a caucus late in the game, he wouldn't last in an open primary.
p1601
(dp1602
g3
I-2
sg4
I-1
ssV\u000a\u000aI got in once a few days ago, and Experian said my address wasn't my address and couldn't confirm my identity. PUNCxUPPERCASE
p1603
(dp1604
g3
I-1
sg4
I-1
ssV  They already have software and infrastructure in place to work with bitcoins, so it would take some effort for them to move to a different crypto currency.
p1605
(dp1606
g3
I-1
sg4
I-1
ssV&gt;$7,000 fine\u000a\u000aIt's insane that one of the largest businesses in the world would refuse to pay this, but it's Walmart.
p1607
(dp1608
g3
I-1
sg4
I-1
ssV  I will owe 20%, which is $3000.
p1609
(dp1610
g3
I-1
sg4
I-1
ssV\u000a\u000aAnd please oh please stop with the "enough is enough" and "talk about reckless" and so on.
p1611
(dp1612
g3
I1
sg4
I-1
ssV People take you at your word.
p1613
(dp1614
g3
I0
sg4
I-1
ssV\u000a\u000aI seriously hope I'm out to lunch on this one. PUNCxUPPERCASE
p1615
(dp1616
g3
I0
sg4
I-1
ssVWhen I read the article, I noticed that:\u000a\u000a1) His *old* premiums were 1/2 his monthly take home pay.
p1617
(dp1618
g3
I-1
sg4
I-1
ssVNY Times indicates that it isn't over.
p1619
(dp1620
g3
I-1
sg4
I-1
ssV"  It's so childish.
p1621
(dp1622
g3
I-1
sg4
I-1
ssV Ted Cruz is the Tiger Woods of conservative hucksters.
p1623
(dp1624
g3
I-1
sg4
I-1
ssV  Furthermore, they generally retained the Creeds and Church Fathers and taught there is "One Holy, Catholic and Apostolic Church.
p1625
(dp1626
g3
I-1
sg4
I-1
ssVI hope it doesn't need food stamps..
p1627
(dp1628
g3
I0
sg4
I1
ssVReddit should just ban every mod and start again.
p1629
(dp1630
g3
I-1
sg4
I-1
ssV I've got Malcolm X-ray Specs--they enable me to see through white\u000apolitical hypocrisy.
p1631
(dp1632
g3
I-1
sg4
I-1
ssV Are you fucking kidding me?! PUNCxEXCLAMATION_POINT PUNCxQUESTION_MARK PUNCxINTERROBANG
p1633
(dp1634
g3
I0
sg4
I-1
ssVYeah because Obama is not at all a communist.
p1635
(dp1636
g3
I-1
sg4
I-1
ssV We're Christians, not patriots.
p1637
(dp1638
g3
I-1
sg4
I-1
ssVcom/story/2013/11/washington-state-gmo-labeling-initiative-2013-elections-99442.
p1639
(dp1640
g3
I-1
sg4
I-1
ssV This is from a moderate right Republican.
p1641
(dp1642
g3
I0
sg4
I-1
ssV What he probably said is that we could eliminate the coercive monopoly on currency (e.
p1643
(dp1644
g3
I-1
sg4
I-1
ssV The reason that real estate agent is seeing less minority buyers is because the lending standards have gotten tighter, and safer.
p1645
(dp1646
g3
I-1
sg4
I-1
ssV Makes perfect sense.
p1647
(dp1648
g3
I1
sg4
I1
ssV  \u000a\u000aCorrect me if wrong, but it has no real value of its own besides the "ooo, pretty" factor, and some minor use in electronics etc.
p1649
(dp1650
g3
I-1
sg4
I-1
ssV From my understanding these Mega-Churches are an exemption from all other Southern Baptist bylaws, however, there is absolutely no reason to keep these salaries a secret unless there is a fear of public ridicule or shame.
p1651
(dp1652
g3
I-1
sg4
I-1
ssV857 trillion at the end of his last budget, for a percent increase of 150%.
p1653
(dp1654
g3
I-1
sg4
I-1
ssV  I agree it was poor judgement to take the donation in the first place.
p1655
(dp1656
g3
I-1
sg4
I-1
ssV What does this have to do with divorce? PUNCxQUESTION_MARK
p1657
(dp1658
g3
I0
sg4
I-1
ssV People with less than a high school education can build a solid life.
p1659
(dp1660
g3
I1
sg4
I-1
ssV If you want to make some psuedo-Marxist case against the existence of private property, fine, but don't set yourself up as attacking libertarianism in doing so.
p1661
(dp1662
g3
I-1
sg4
I-1
ssV\u000a\u000aAmerican exceptionalism.
p1663
(dp1664
g3
I0
sg4
I1
ssV Increasing inequality.
p1665
(dp1666
g3
I0
sg4
I-1
ssVca/Shows/TheDailyShow? PUNCxQUESTION_MARK
p1667
(dp1668
g3
I0
sg4
I-1
ssV\u000a\u000a\u000aTL:DR Fuck you America. PUNCxEMOTICON PUNCxUPPERCASE
p1669
(dp1670
g3
I0
sg4
I-1
ssVbe/yjsXAH76P-Y) as effective manipulators.
p1671
(dp1672
g3
I-1
sg4
I-1
ssVBoth sides only posted a partial deal.
p1673
(dp1674
g3
I-1
sg4
I-1
ssV It's akin to typing and Windows Office classes kids started taking 20-25 years ago.
p1675
(dp1676
g3
I-1
sg4
I-1
ssV" \u000a\u000a&gt;\u201c[i]f it hurts a bunch of college kids that\u2019s too lazy to get up off their bohunkus [sic] and get a photo ID, so be it,\u201d and \u201cif it hurts a bunch of lazy blacks that wants the government to give them everything, so be it. PUNCxUPPERCASE
p1677
(dp1678
g3
I-1
sg4
I-1
ssVKoch: $15 million? PUNCxQUESTION_MARK
p1679
(dp1680
g3
I0
sg4
I-1
ssV  The NSA's unprecedented overreach of authority was born of this administration.
p1681
(dp1682
g3
I-1
sg4
I-1
ssV\u000a\u000aSo this is a course in apologetics.
p1683
(dp1684
g3
I-1
sg4
I-1
ssVNot sure why people are all up in arms about the title.
p1685
(dp1686
g3
I-1
sg4
I-1
ssV A democrat made a comment trivializing Rape and it's not all over the news? PUNCxQUESTION_MARK
p1687
(dp1688
g3
I-1
sg4
I1
ssV I have adblock, but am presently getting 'trending' items for the top few bits of my newsfeed.
p1689
(dp1690
g3
I-1
sg4
I-1
ssV The only love between people of the same sex can righteously be seen through Philadelphians love.
p1691
(dp1692
g3
I1
sg4
I-1
ssV  Set out realistic, practical things that can be done, and accomplish them.
p1693
(dp1694
g3
I1
sg4
I-1
ssV"Congress shall make no law respecting an establishment of religion, or prohibiting the free exercise thereof"\u000a\u000aHow is this not clear.
p1695
(dp1696
g3
I-1
sg4
I-1
ssV Smart, decent record, and a great personal story; but he sounds like a ninth-grade shop teacher half the time.
p1697
(dp1698
g3
I1
sg4
I-1
ssV (and growing in numbers) coinciding with watching our 20 and 30 somethings leave Vermont to pursue job opportunities and business opportunities out of state.
p1699
(dp1700
g3
I-1
sg4
I-1
ssV Some team of consultants and strategists sat around in a room filled with Yes-men and went through all the numbers and tactics that they could think of to use this to make them look like heros.
p1701
(dp1702
g3
I-1
sg4
I-1
ssVyou can't fixed stupid.
p1703
(dp1704
g3
I-1
sg4
I-1
ssV We are still *terrified* apparently and since 9/11 was an act of terrorism...
p1705
(dp1706
g3
I-1
sg4
I-1
ssV Never underestimate some type of technology.
p1707
(dp1708
g3
I-1
sg4
I-1
ssVhtml)\u000a\u000aVoter ID laws to combat the umm dozen or so cases\u000a[source](http://www.
p1709
(dp1710
g3
I-1
sg4
I-1
ssVThey are prepping her for the next election.
p1711
(dp1712
g3
I0
sg4
I-1
ssVNO WAY ! PUNCxEXCLAMATION_POINT PUNCxUPPERCASE
p1713
(dp1714
g3
I1
sg4
I1
ssV The fact that the Governor, Lt.
p1715
(dp1716
g3
I0
sg4
I-1
ssVSchooling needs to give kids a taste of things and find out what they like, are good at, and enjoy.
p1717
(dp1718
g3
I1
sg4
I-1
ssV\u000a\u000aCall me cynical but the fact that it has no plan for enforcement or penalties for non-compliance makes me think this is a rather obvious political ploy.
p1719
(dp1720
g3
I-1
sg4
I-1
ssV Go look up his 2nd presidential numbers and see how many electoral votes he got.
p1721
(dp1722
g3
I0
sg4
I-1
ssVI don't think it's necessarily dying in America, but I would say more individuals are bending the beliefs of religions  to not be so ridiculous.
p1723
(dp1724
g3
I-1
sg4
I-1
ssV Thanks.
p1725
(dp1726
g3
I0
sg4
I-1
ssV  I wonder why it took them so long to start disciplinary proceedings.
p1727
(dp1728
g3
I-1
sg4
I-1
ssVindependent.
p1729
(dp1730
g3
I1
sg4
I-1
ssV Of course they would fighting the military that they have voted to hurl money at for years, which is sort of like banking on your own defeat before you begin.
p1731
(dp1732
g3
I-1
sg4
I-1
ssV Conservatives and liberals should listen to his message.
p1733
(dp1734
g3
I-1
sg4
I-1
ss.